Certificate:
    Data:
        Version: 3 (0x2)
        Serial Number: 12 (0xc)
    Signature Algorithm: sha256WithRSAEncryption
        Issuer: C=US, ST=California, L=Goleta, O=Hewlett-Packard, OU=Helion Eucalyptus Development, CN=Helion Eucalyptus Development Root Certification Authority
        Validity
            Not Before: Apr 21 05:16:04 2015 GMT
            Not After : Apr 20 05:16:04 2018 GMT
        Subject: C=US, ST=California, O=Hewlett-Packard, OU=Helion Eucalyptus Development, CN=*.hp-gol01-d4.mjc.prc.eucalyptus-systems.com
        Subject Public Key Info:
            Public Key Algorithm: rsaEncryption
                Public-Key: (2048 bit)
                Modulus:
                    00:d0:5f:ad:da:76:fa:51:7c:16:cf:c8:2d:14:33:
                    80:5a:1d:6a:ad:b3:6b:3b:ce:e5:73:48:f5:ec:98:
                    0d:39:73:a3:ad:c5:be:f5:60:5f:70:da:3c:dd:e4:
                    f1:a5:dd:9f:19:31:ec:0f:97:50:a4:62:d4:74:93:
                    0d:f2:c3:00:8c:07:8e:ed:db:87:92:13:7c:5f:21:
                    c6:fa:07:37:85:08:5e:dd:05:ea:4a:7a:6f:7f:a2:
                    3f:1d:d6:81:61:47:b5:53:28:88:f2:c9:0f:ef:7c:
                    3b:03:c9:5a:a9:df:08:32:46:94:3d:cb:ee:23:fc:
                    4c:47:4b:69:63:54:0d:ee:c9:7b:6b:79:e0:1c:cd:
                    99:2c:45:89:2f:72:cf:6b:e2:d3:15:b0:df:3a:08:
                    df:e9:cc:5f:4e:08:12:16:f8:0c:a0:a8:5e:b8:86:
                    27:8e:5e:dd:0f:0e:b8:aa:b8:03:56:5f:e4:0d:10:
                    e6:46:34:1d:f3:d7:5d:a0:58:23:f2:ac:7b:7a:c3:
                    4f:ac:79:33:35:5e:9e:52:26:fd:a0:58:03:c4:94:
                    f0:4e:77:41:37:90:7d:80:a7:d8:9f:d6:5e:b3:45:
                    c4:38:3d:1b:e7:a7:0f:1a:8a:2d:35:b0:38:5f:57:
                    30:1b:11:f1:c2:0f:57:70:d7:97:e4:b8:f4:45:d5:
                    5c:f7
                Exponent: 65537 (0x10001)
        X509v3 extensions:
            X509v3 Basic Constraints: critical
                CA:FALSE
            X509v3 Extended Key Usage: 
                TLS Web Server Authentication, TLS Web Client Authentication
            X509v3 Key Usage: critical
                Digital Signature, Key Encipherment
            X509v3 Authority Key Identifier: 
                keyid:36:42:85:36:90:BA:3A:A6:E4:2E:05:59:A0:50:13:13:E4:D2:DB:58

            X509v3 Subject Alternative Name: 
                DNS:*.hp-gol01-d4.mjc.prc.eucalyptus-systems.com, DNS:hp-gol01-d4.mjc.prc.eucalyptus-systems.com
            X509v3 Subject Key Identifier: 
                3B:AC:01:DE:86:9E:5C:51:CC:B5:F5:07:46:EF:FE:9E:76:CE:F5:5A
    Signature Algorithm: sha256WithRSAEncryption
         be:9b:a7:42:0f:39:c7:6e:3e:6a:88:e5:0f:58:ea:7e:a9:db:
         94:b6:bd:d6:ef:01:1a:85:31:33:d2:c9:d6:97:e4:9a:84:55:
         f2:d7:e1:8c:4a:27:05:0c:25:58:a8:f1:72:b1:eb:44:69:f2:
         c8:cd:32:62:bf:95:e7:9e:db:73:56:9f:a2:6f:77:6a:0a:15:
         7c:6c:3b:0d:3a:1b:06:df:10:4f:f2:75:75:95:67:54:23:c0:
         0d:90:48:c9:8a:47:95:3c:5e:d2:f2:5c:3d:aa:30:87:09:66:
         16:1b:a7:d4:2a:4b:77:92:30:41:f7:f5:f0:a6:0a:ef:7a:7a:
         cf:49:bb:b2:eb:92:71:b1:96:62:2b:52:6e:f0:d0:a1:f4:60:
         b1:fe:e5:42:7e:54:b0:37:41:f1:8a:26:5a:7f:76:84:37:d6:
         b4:8a:26:93:78:5d:1f:39:cb:58:6f:3f:33:fd:51:f8:93:b8:
         91:73:41:7a:67:31:54:57:72:3e:76:c6:36:3f:9f:ac:be:89:
         6e:95:4a:06:40:d5:e5:69:24:4f:7c:1f:39:ad:c0:c0:ac:6c:
         7b:3f:5a:0b:45:68:62:75:37:c1:45:1c:fd:b4:0b:17:8c:fa:
         3c:41:96:94:46:cc:38:b6:c4:20:e5:36:2b:0a:4f:8c:b3:1e:
         db:b1:79:e7:da:d5:6d:6e:be:09:e5:e4:0a:29:b6:bf:35:07:
         7c:14:c8:58:49:17:a5:92:49:19:31:7d:c1:9c:03:ed:fb:5a:
         83:d3:5e:56:e2:1b:54:39:cc:82:5b:da:19:7f:ab:cd:89:14:
         7c:32:0f:ec:c0:4e:f2:43:fc:b0:45:81:6c:dc:03:bc:a9:ed:
         df:af:92:7e:3f:8c:0f:46:d2:34:4a:48:77:84:55:07:06:e7:
         74:a6:25:2d:a8:db:f2:f9:3d:9e:8d:1b:ac:24:f4:21:c3:f2:
         ea:3d:cc:65:47:7d:b7:0e:1c:6d:13:47:0a:8f:ea:70:21:df:
         c7:02:19:70:bc:c8:9b:7a:93:27:05:63:63:96:c8:7f:08:a5:
         b8:72:a3:cb:39:d8:45:62:dc:07:96:52:9d:c5:2f:ce:59:01:
         9d:2c:49:a5:be:56:1d:3d:4f:72:1a:f7:aa:61:77:16:ac:89:
         96:d2:c1:6e:03:fb:50:95:2f:36:75:01:6f:a4:a5:a4:84:e4:
         1e:f6:e2:99:44:32:08:b1:58:04:0b:04:50:35:ec:53:f7:86:
         56:c0:03:e6:01:59:d0:23:3c:16:36:04:a6:8c:ca:b0:72:82:
         84:5f:6a:85:54:cb:63:42:b0:00:ca:c6:00:bf:e1:db:fc:5f:
         4a:76:47:5e:c6:91:91:f5
-----BEGIN CERTIFICATE-----
MIIFuDCCA6CgAwIBAgIBDDANBgkqhkiG9w0BAQsFADCBujELMAkGA1UEBhMCVVMx
EzARBgNVBAgMCkNhbGlmb3JuaWExDzANBgNVBAcMBkdvbGV0YTEYMBYGA1UECgwP
SGV3bGV0dC1QYWNrYXJkMSYwJAYDVQQLDB1IZWxpb24gRXVjYWx5cHR1cyBEZXZl
bG9wbWVudDFDMEEGA1UEAww6SGVsaW9uIEV1Y2FseXB0dXMgRGV2ZWxvcG1lbnQg
Um9vdCBDZXJ0aWZpY2F0aW9uIEF1dGhvcml0eTAeFw0xNTA0MjEwNTE2MDRaFw0x
ODA0MjAwNTE2MDRaMIGbMQswCQYDVQQGEwJVUzETMBEGA1UECAwKQ2FsaWZvcm5p
YTEYMBYGA1UECgwPSGV3bGV0dC1QYWNrYXJkMSYwJAYDVQQLDB1IZWxpb24gRXVj
YWx5cHR1cyBEZXZlbG9wbWVudDE1MDMGA1UEAwwsKi5ocC1nb2wwMS1kNC5tamMu
cHJjLmV1Y2FseXB0dXMtc3lzdGVtcy5jb20wggEiMA0GCSqGSIb3DQEBAQUAA4IB
DwAwggEKAoIBAQDQX63advpRfBbPyC0UM4BaHWqts2s7zuVzSPXsmA05c6Otxb71
YF9w2jzd5PGl3Z8ZMewPl1CkYtR0kw3ywwCMB47t24eSE3xfIcb6BzeFCF7dBepK
em9/oj8d1oFhR7VTKIjyyQ/vfDsDyVqp3wgyRpQ9y+4j/ExHS2ljVA3uyXtreeAc
zZksRYkvcs9r4tMVsN86CN/pzF9OCBIW+AygqF64hieOXt0PDriquANWX+QNEOZG
NB3z112gWCPyrHt6w0+seTM1Xp5SJv2gWAPElPBOd0E3kH2Ap9if1l6zRcQ4PRvn
pw8aii01sDhfVzAbEfHCD1dw15fkuPRF1Vz3AgMBAAGjgeUwgeIwDAYDVR0TAQH/
BAIwADAdBgNVHSUEFjAUBggrBgEFBQcDAQYIKwYBBQUHAwIwDgYDVR0PAQH/BAQD
AgWgMB8GA1UdIwQYMBaAFDZChTaQujqm5C4FWaBQExPk0ttYMGMGA1UdEQRcMFqC
LCouaHAtZ29sMDEtZDQubWpjLnByYy5ldWNhbHlwdHVzLXN5c3RlbXMuY29tgipo
cC1nb2wwMS1kNC5tamMucHJjLmV1Y2FseXB0dXMtc3lzdGVtcy5jb20wHQYDVR0O
BBYEFDusAd6GnlxRzLX1B0bv/p52zvVaMA0GCSqGSIb3DQEBCwUAA4ICAQC+m6dC
DznHbj5qiOUPWOp+qduUtr3W7wEahTEz0snWl+SahFXy1+GMSicFDCVYqPFysetE
afLIzTJiv5XnnttzVp+ib3dqChV8bDsNOhsG3xBP8nV1lWdUI8ANkEjJikeVPF7S
8lw9qjCHCWYWG6fUKkt3kjBB9/XwpgrvenrPSbuy65JxsZZiK1Ju8NCh9GCx/uVC
flSwN0HxiiZaf3aEN9a0iiaTeF0fOctYbz8z/VH4k7iRc0F6ZzFUV3I+dsY2P5+s
volulUoGQNXlaSRPfB85rcDArGx7P1oLRWhidTfBRRz9tAsXjPo8QZaURsw4tsQg
5TYrCk+Msx7bsXnn2tVtbr4J5eQKKba/NQd8FMhYSRelkkkZMX3BnAPt+1qD015W
4htUOcyCW9oZf6vNiRR8Mg/swE7yQ/ywRYFs3AO8qe3fr5J+P4wPRtI0Skh3hFUH
Bud0piUtqNvy+T2ejRusJPQhw/LqPcxlR323DhxtE0cKj+pwId/HAhlwvMibepMn
BWNjlsh/CKW4cqPLOdhFYtwHllKdxS/OWQGdLEmlvlYdPU9yGveqYXcWrImW0sFu
A/tQlS82dQFvpKWkhOQe9uKZRDIIsVgECwRQNexT94ZWwAPmAVnQIzwWNgSmjMqw
coKEX2qFVMtjQrAAysYAv+Hb/F9KdkdexpGR9Q==
-----END CERTIFICATE-----
