Certificate:
    Data:
        Version: 3 (0x2)
        Serial Number: 14 (0xe)
    Signature Algorithm: sha256WithRSAEncryption
        Issuer: C=US, ST=California, L=Goleta, O=Hewlett-Packard, OU=Helion Eucalyptus Development, CN=Helion Eucalyptus Development Root Certification Authority
        Validity
            Not Before: Apr 21 05:28:52 2015 GMT
            Not After : Apr 20 05:28:52 2018 GMT
        Subject: C=US, ST=California, O=Hewlett-Packard, OU=Helion Eucalyptus Development, CN=*.prc.eucalyptus-systems.com
        Subject Public Key Info:
            Public Key Algorithm: rsaEncryption
                Public-Key: (2048 bit)
                Modulus:
                    00:a7:28:d1:08:c8:57:93:de:83:58:b0:5b:8e:c0:
                    e2:5d:29:87:b8:24:d5:34:81:cc:a3:04:2a:5e:fd:
                    4c:be:2f:56:f7:cc:45:56:d2:58:0c:9c:f4:ca:18:
                    2c:85:b3:b7:0c:6b:98:a9:3a:f6:47:8e:75:08:42:
                    e6:61:b0:58:96:14:10:32:2d:2d:58:ee:08:c7:0b:
                    1e:04:94:68:c4:97:00:03:1c:75:f1:d4:a9:d9:a9:
                    f1:bd:cc:8f:93:cc:68:98:c0:b7:73:5b:77:03:21:
                    05:f9:8d:58:40:aa:4c:3d:c0:aa:39:98:5d:6d:08:
                    11:50:a0:ab:63:a9:1c:2e:b8:02:70:26:5f:f0:61:
                    4f:34:43:c1:4b:78:b0:63:3f:55:f1:00:fd:41:22:
                    e4:b3:93:09:6e:54:cf:c1:1c:43:1e:83:0c:7c:cc:
                    41:f1:23:de:0a:a1:26:95:35:14:cf:e2:09:ef:07:
                    af:cf:fd:c7:5e:03:50:67:b6:bd:3f:cb:e0:18:cc:
                    8a:8f:bf:81:b9:d8:30:89:d4:7c:10:d6:2f:d3:fc:
                    cc:d5:0c:c3:a0:2b:51:1c:dc:48:0f:9d:63:fd:8e:
                    f4:0e:86:dc:8e:6b:f3:5f:d3:25:82:47:b4:81:cd:
                    70:ad:a2:3c:3f:5c:3e:09:33:42:29:ec:0d:b3:d3:
                    60:f7
                Exponent: 65537 (0x10001)
        X509v3 extensions:
            X509v3 Basic Constraints: critical
                CA:FALSE
            X509v3 Extended Key Usage: 
                TLS Web Server Authentication, TLS Web Client Authentication
            X509v3 Key Usage: critical
                Digital Signature, Key Encipherment
            X509v3 Authority Key Identifier: 
                keyid:36:42:85:36:90:BA:3A:A6:E4:2E:05:59:A0:50:13:13:E4:D2:DB:58

            X509v3 Subject Alternative Name: 
                DNS:*.prc.eucalyptus-systems.com, DNS:prc.eucalyptus-systems.com
            X509v3 Subject Key Identifier: 
                55:24:99:32:9B:F6:7C:8F:71:71:A5:B7:38:97:E3:94:91:1C:8C:77
    Signature Algorithm: sha256WithRSAEncryption
         bb:d6:ae:b1:1f:27:3f:c1:fb:7e:a2:13:3e:c6:8e:9d:a2:da:
         02:65:52:49:17:b8:73:cf:ef:50:9b:ff:f2:1e:a0:74:29:1e:
         79:98:b9:63:0f:d5:aa:fb:c0:bf:45:80:c9:fb:a7:67:43:bf:
         6e:0b:f4:e8:6b:9d:56:d5:0a:d9:b2:c9:37:a9:00:1c:5d:93:
         60:b4:2f:76:fb:c6:e8:5d:1c:2a:27:d1:b0:ad:9f:1b:30:09:
         37:22:d8:6a:43:14:29:fb:e4:45:21:59:38:42:33:c9:39:05:
         c2:b9:3e:7b:a2:b2:1a:df:d6:c1:ef:c6:80:5c:1a:e6:8c:b4:
         5f:2b:4f:94:3d:2e:3d:e4:30:b1:78:47:5f:67:68:0d:04:64:
         e8:80:38:ec:ae:68:7f:c3:fb:a6:71:73:7f:bc:66:90:53:1b:
         25:71:29:97:1e:f2:22:bd:20:12:b1:40:1d:0e:5b:55:41:b0:
         ee:46:bc:7a:93:7c:c9:0d:17:0b:ed:a1:2d:72:4c:15:39:d8:
         db:06:be:8d:4d:bd:6f:37:0e:cc:1c:a2:02:fa:10:9c:ed:18:
         3f:50:fd:9b:14:27:21:2d:0d:c7:8f:2e:71:ce:43:fb:e2:5f:
         40:8d:7a:49:1c:ac:0e:c4:22:76:8c:bf:7a:8f:9a:cd:1a:90:
         8d:65:f6:18:ad:16:cd:89:f9:4c:2e:f9:bc:14:a8:9b:17:25:
         70:35:a8:16:31:cf:2b:60:7a:4f:c1:02:15:6b:61:68:3d:84:
         87:75:f2:f0:e3:63:65:6b:09:5a:94:86:5e:9b:3a:47:39:4b:
         a4:e5:cb:61:06:dd:63:a8:00:a7:23:91:a7:d8:6d:ac:9f:e4:
         0f:f2:b3:13:e2:22:ca:c8:80:71:42:dd:dd:93:19:ce:7e:34:
         4a:fc:ca:c4:89:05:09:a5:6b:70:66:2f:93:48:53:e4:95:38:
         d6:f6:02:52:d7:10:4b:91:c6:81:e6:a0:eb:00:b3:41:58:ce:
         57:35:71:84:ef:a2:62:36:e5:8e:50:ae:e0:84:5a:ba:20:cc:
         9a:6c:c5:01:d5:f2:d8:13:15:f0:23:80:b0:1c:b2:59:ca:93:
         e3:8d:6e:15:bf:7a:62:e0:e5:01:7d:33:17:01:98:4c:c8:b5:
         50:e5:36:55:e4:ff:81:c2:c5:ef:18:43:7e:06:71:ad:9a:c3:
         8e:9e:af:b1:e6:c3:6f:fe:89:3e:89:74:02:95:80:b8:57:1c:
         ea:7c:45:c2:a2:d3:5f:13:45:30:11:96:87:d4:18:76:8f:e4:
         88:da:95:3d:21:ce:74:60:f1:77:43:67:cb:4f:c5:a6:34:ba:
         7d:38:19:a6:b7:b4:5f:78
-----BEGIN CERTIFICATE-----
MIIFiDCCA3CgAwIBAgIBDjANBgkqhkiG9w0BAQsFADCBujELMAkGA1UEBhMCVVMx
EzARBgNVBAgMCkNhbGlmb3JuaWExDzANBgNVBAcMBkdvbGV0YTEYMBYGA1UECgwP
SGV3bGV0dC1QYWNrYXJkMSYwJAYDVQQLDB1IZWxpb24gRXVjYWx5cHR1cyBEZXZl
bG9wbWVudDFDMEEGA1UEAww6SGVsaW9uIEV1Y2FseXB0dXMgRGV2ZWxvcG1lbnQg
Um9vdCBDZXJ0aWZpY2F0aW9uIEF1dGhvcml0eTAeFw0xNTA0MjEwNTI4NTJaFw0x
ODA0MjAwNTI4NTJaMIGLMQswCQYDVQQGEwJVUzETMBEGA1UECAwKQ2FsaWZvcm5p
YTEYMBYGA1UECgwPSGV3bGV0dC1QYWNrYXJkMSYwJAYDVQQLDB1IZWxpb24gRXVj
YWx5cHR1cyBEZXZlbG9wbWVudDElMCMGA1UEAwwcKi5wcmMuZXVjYWx5cHR1cy1z
eXN0ZW1zLmNvbTCCASIwDQYJKoZIhvcNAQEBBQADggEPADCCAQoCggEBAKco0QjI
V5Peg1iwW47A4l0ph7gk1TSBzKMEKl79TL4vVvfMRVbSWAyc9MoYLIWztwxrmKk6
9keOdQhC5mGwWJYUEDItLVjuCMcLHgSUaMSXAAMcdfHUqdmp8b3Mj5PMaJjAt3Nb
dwMhBfmNWECqTD3AqjmYXW0IEVCgq2OpHC64AnAmX/BhTzRDwUt4sGM/VfEA/UEi
5LOTCW5Uz8EcQx6DDHzMQfEj3gqhJpU1FM/iCe8Hr8/9x14DUGe2vT/L4BjMio+/
gbnYMInUfBDWL9P8zNUMw6ArURzcSA+dY/2O9A6G3I5r81/TJYJHtIHNcK2iPD9c
PgkzQinsDbPTYPcCAwEAAaOBxTCBwjAMBgNVHRMBAf8EAjAAMB0GA1UdJQQWMBQG
CCsGAQUFBwMBBggrBgEFBQcDAjAOBgNVHQ8BAf8EBAMCBaAwHwYDVR0jBBgwFoAU
NkKFNpC6OqbkLgVZoFATE+TS21gwQwYDVR0RBDwwOoIcKi5wcmMuZXVjYWx5cHR1
cy1zeXN0ZW1zLmNvbYIacHJjLmV1Y2FseXB0dXMtc3lzdGVtcy5jb20wHQYDVR0O
BBYEFFUkmTKb9nyPcXGltziX45SRHIx3MA0GCSqGSIb3DQEBCwUAA4ICAQC71q6x
Hyc/wft+ohM+xo6dotoCZVJJF7hzz+9Qm//yHqB0KR55mLljD9Wq+8C/RYDJ+6dn
Q79uC/Toa51W1QrZssk3qQAcXZNgtC92+8boXRwqJ9GwrZ8bMAk3IthqQxQp++RF
IVk4QjPJOQXCuT57orIa39bB78aAXBrmjLRfK0+UPS495DCxeEdfZ2gNBGTogDjs
rmh/w/umcXN/vGaQUxslcSmXHvIivSASsUAdDltVQbDuRrx6k3zJDRcL7aEtckwV
OdjbBr6NTb1vNw7MHKIC+hCc7Rg/UP2bFCchLQ3Hjy5xzkP74l9AjXpJHKwOxCJ2
jL96j5rNGpCNZfYYrRbNiflMLvm8FKibFyVwNagWMc8rYHpPwQIVa2FoPYSHdfLw
42NlawlalIZemzpHOUuk5cthBt1jqACnI5Gn2G2sn+QP8rMT4iLKyIBxQt3dkxnO
fjRK/MrEiQUJpWtwZi+TSFPklTjW9gJS1xBLkcaB5qDrALNBWM5XNXGE76JiNuWO
UK7ghFq6IMyabMUB1fLYExXwI4CwHLJZypPjjW4Vv3pi4OUBfTMXAZhMyLVQ5TZV
5P+BwsXvGEN+BnGtmsOOnq+x5sNv/ok+iXQClYC4VxzqfEXCotNfE0UwEZaH1Bh2
j+SI2pU9Ic50YPF3Q2fLT8WmNLp9OBmmt7RfeA==
-----END CERTIFICATE-----
