Certificate:
    Data:
        Version: 3 (0x2)
        Serial Number: 8 (0x8)
    Signature Algorithm: sha256WithRSAEncryption
        Issuer: C=US, ST=California, L=Goleta, O=Hewlett-Packard, OU=Helion Eucalyptus Development, CN=Helion Eucalyptus Development Root Certification Authority
        Validity
            Not Before: Apr 21 04:57:30 2015 GMT
            Not After : Apr 20 04:57:30 2018 GMT
        Subject: C=US, ST=California, O=Hewlett-Packard, OU=Helion Eucalyptus Development, CN=*.hp-gol01-d7.mjc.prc.eucalyptus-systems.com
        Subject Public Key Info:
            Public Key Algorithm: rsaEncryption
                Public-Key: (2048 bit)
                Modulus:
                    00:90:2a:bb:5f:e6:e5:1f:9f:f3:f8:58:8c:d7:aa:
                    77:a7:18:23:e6:e2:00:ab:0f:c3:9a:f8:10:dc:0d:
                    32:97:06:e9:af:f0:c5:ad:3e:6f:b8:cf:29:f9:78:
                    30:4b:cf:f2:c6:9a:8d:d9:00:ce:fc:bf:27:ac:9b:
                    07:c9:9b:97:b5:00:cd:1c:36:10:d3:6f:f8:55:41:
                    bf:23:b8:db:48:7f:e0:24:ea:ba:90:b6:a0:f1:52:
                    54:02:b9:a3:63:9a:39:be:1b:3b:a7:2d:49:8d:1b:
                    f6:2d:db:47:50:e6:4c:ac:6c:ea:0d:1f:28:ec:32:
                    30:0e:33:70:5d:59:1a:f8:4f:ff:93:fa:92:2e:6e:
                    88:4e:eb:d7:1f:c1:2d:04:05:5b:6f:8b:c5:03:8b:
                    7d:dc:6d:e8:36:6f:c4:7b:1d:96:a3:3c:08:3d:4d:
                    41:f9:83:17:03:45:0c:ce:1d:70:51:61:35:6f:c0:
                    dd:02:b9:9f:f3:25:a7:9b:4c:ca:68:94:76:0b:ae:
                    53:fe:8b:8c:c8:e8:66:9b:55:7b:61:76:2c:48:1c:
                    68:de:d6:24:dc:de:17:84:16:46:9d:6e:96:8b:13:
                    b5:32:c3:e1:b9:f2:2e:5b:de:32:d3:7c:3b:d4:7a:
                    bf:50:dc:c3:bc:cc:cf:36:73:dd:3a:5a:34:de:d8:
                    7c:23
                Exponent: 65537 (0x10001)
        X509v3 extensions:
            X509v3 Basic Constraints: critical
                CA:FALSE
            X509v3 Extended Key Usage: 
                TLS Web Server Authentication, TLS Web Client Authentication
            X509v3 Key Usage: critical
                Digital Signature, Key Encipherment
            X509v3 Authority Key Identifier: 
                keyid:36:42:85:36:90:BA:3A:A6:E4:2E:05:59:A0:50:13:13:E4:D2:DB:58

            X509v3 Subject Alternative Name: 
                DNS:*.hp-gol01-d7.mjc.prc.eucalyptus-systems.com, DNS:hp-gol01-d7.mjc.prc.eucalyptus-systems.com
            X509v3 Subject Key Identifier: 
                C2:F3:3A:58:49:A5:F0:6E:E2:A8:0F:01:92:38:5A:C8:91:CD:09:4D
    Signature Algorithm: sha256WithRSAEncryption
         03:23:f4:cf:b9:14:10:59:2b:6b:1c:43:ac:cd:f7:20:bc:1e:
         fa:1b:3c:15:a0:91:22:ef:13:5c:c5:7a:63:b2:4d:03:37:1e:
         6d:dc:e1:a8:f2:73:41:80:29:4b:25:8e:fa:21:0a:fa:77:40:
         22:50:45:9e:98:f2:38:de:9e:f3:91:54:4d:88:4c:99:c8:37:
         ee:2c:a4:91:6d:7a:ea:fb:a6:b7:3a:1c:1c:93:43:29:3e:d9:
         a2:6f:5f:2e:f3:0a:1d:fd:9d:f4:12:4e:bb:22:e4:07:7c:16:
         8a:8b:86:6c:72:5e:e5:64:16:30:93:34:b2:73:11:f1:4a:5d:
         95:ec:fd:07:dd:3f:bb:fd:8b:ac:79:7e:a3:da:80:2f:81:2b:
         be:e8:e8:35:7c:18:bb:a2:b5:30:0f:ea:78:2c:2e:58:4a:42:
         6c:f1:4b:20:f4:50:00:e5:ec:03:01:58:7e:4b:1c:e7:6c:ae:
         5d:ae:22:67:7a:66:e4:70:66:c3:7c:91:09:c5:10:1b:60:91:
         fb:9c:e0:27:64:d1:c3:c5:86:9a:31:34:19:ae:cc:7d:86:c3:
         51:14:b3:ef:5e:0e:25:b6:e9:6b:19:ee:13:9e:be:e4:57:ae:
         6a:68:71:09:b2:e4:a4:5c:b3:47:26:c0:77:07:7d:be:6d:54:
         a0:ba:c2:8f:6b:20:bc:14:65:f9:c8:06:d8:a3:6d:6b:0e:a2:
         0c:fa:59:3a:42:d4:7a:55:23:fb:41:47:75:38:02:e4:25:96:
         a7:b4:c8:38:17:71:2e:d9:98:95:d9:94:6e:98:fe:84:be:f2:
         23:57:9d:ed:fe:7a:9d:1c:58:03:ec:0d:52:49:8d:22:b1:00:
         6c:9f:a5:82:a5:66:98:b2:ac:4a:85:9e:00:6b:93:c0:b2:2c:
         e8:d9:7c:52:94:2f:59:e1:0b:ff:ec:e7:7a:27:01:76:13:f4:
         b6:ce:09:d7:a4:71:5e:b2:1a:b4:be:47:c5:65:86:8c:4f:1c:
         cb:4c:78:f6:87:cc:d5:d0:60:73:cf:8a:2d:62:54:42:d4:d1:
         1a:2c:2d:af:de:e1:8c:19:be:4b:05:a4:90:ec:d0:74:65:0c:
         05:97:d9:61:6e:b6:0b:a5:a4:9c:a8:8f:8a:a6:02:50:b6:de:
         b3:98:3f:1f:9e:68:28:2d:8a:a1:b8:32:5f:94:c5:d1:3f:f5:
         30:e0:df:21:84:80:de:df:51:35:86:ac:1a:d6:86:bd:4b:66:
         1e:de:6e:e8:2e:7b:28:23:0f:26:68:eb:e0:45:9f:7c:c8:3f:
         71:4f:ea:26:2e:39:30:26:a1:d0:02:dd:5e:41:b6:27:25:4d:
         49:61:d8:4e:9f:5c:27:1e
-----BEGIN CERTIFICATE-----
MIIFuDCCA6CgAwIBAgIBCDANBgkqhkiG9w0BAQsFADCBujELMAkGA1UEBhMCVVMx
EzARBgNVBAgMCkNhbGlmb3JuaWExDzANBgNVBAcMBkdvbGV0YTEYMBYGA1UECgwP
SGV3bGV0dC1QYWNrYXJkMSYwJAYDVQQLDB1IZWxpb24gRXVjYWx5cHR1cyBEZXZl
bG9wbWVudDFDMEEGA1UEAww6SGVsaW9uIEV1Y2FseXB0dXMgRGV2ZWxvcG1lbnQg
Um9vdCBDZXJ0aWZpY2F0aW9uIEF1dGhvcml0eTAeFw0xNTA0MjEwNDU3MzBaFw0x
ODA0MjAwNDU3MzBaMIGbMQswCQYDVQQGEwJVUzETMBEGA1UECAwKQ2FsaWZvcm5p
YTEYMBYGA1UECgwPSGV3bGV0dC1QYWNrYXJkMSYwJAYDVQQLDB1IZWxpb24gRXVj
YWx5cHR1cyBEZXZlbG9wbWVudDE1MDMGA1UEAwwsKi5ocC1nb2wwMS1kNy5tamMu
cHJjLmV1Y2FseXB0dXMtc3lzdGVtcy5jb20wggEiMA0GCSqGSIb3DQEBAQUAA4IB
DwAwggEKAoIBAQCQKrtf5uUfn/P4WIzXqnenGCPm4gCrD8Oa+BDcDTKXBumv8MWt
Pm+4zyn5eDBLz/LGmo3ZAM78vyesmwfJm5e1AM0cNhDTb/hVQb8juNtIf+Ak6rqQ
tqDxUlQCuaNjmjm+GzunLUmNG/Yt20dQ5kysbOoNHyjsMjAOM3BdWRr4T/+T+pIu
bohO69cfwS0EBVtvi8UDi33cbeg2b8R7HZajPAg9TUH5gxcDRQzOHXBRYTVvwN0C
uZ/zJaebTMpolHYLrlP+i4zI6GabVXthdixIHGje1iTc3heEFkadbpaLE7Uyw+G5
8i5b3jLTfDvUer9Q3MO8zM82c906WjTe2HwjAgMBAAGjgeUwgeIwDAYDVR0TAQH/
BAIwADAdBgNVHSUEFjAUBggrBgEFBQcDAQYIKwYBBQUHAwIwDgYDVR0PAQH/BAQD
AgWgMB8GA1UdIwQYMBaAFDZChTaQujqm5C4FWaBQExPk0ttYMGMGA1UdEQRcMFqC
LCouaHAtZ29sMDEtZDcubWpjLnByYy5ldWNhbHlwdHVzLXN5c3RlbXMuY29tgipo
cC1nb2wwMS1kNy5tamMucHJjLmV1Y2FseXB0dXMtc3lzdGVtcy5jb20wHQYDVR0O
BBYEFMLzOlhJpfBu4qgPAZI4WsiRzQlNMA0GCSqGSIb3DQEBCwUAA4ICAQADI/TP
uRQQWStrHEOszfcgvB76GzwVoJEi7xNcxXpjsk0DNx5t3OGo8nNBgClLJY76IQr6
d0AiUEWemPI43p7zkVRNiEyZyDfuLKSRbXrq+6a3Ohwck0MpPtmib18u8wod/Z30
Ek67IuQHfBaKi4Zscl7lZBYwkzSycxHxSl2V7P0H3T+7/YuseX6j2oAvgSu+6Og1
fBi7orUwD+p4LC5YSkJs8Usg9FAA5ewDAVh+SxznbK5driJnembkcGbDfJEJxRAb
YJH7nOAnZNHDxYaaMTQZrsx9hsNRFLPvXg4ltulrGe4Tnr7kV65qaHEJsuSkXLNH
JsB3B32+bVSgusKPayC8FGX5yAbYo21rDqIM+lk6QtR6VSP7QUd1OALkJZantMg4
F3Eu2ZiV2ZRumP6EvvIjV53t/nqdHFgD7A1SSY0isQBsn6WCpWaYsqxKhZ4Aa5PA
sizo2XxSlC9Z4Qv/7Od6JwF2E/S2zgnXpHFeshq0vkfFZYaMTxzLTHj2h8zV0GBz
z4otYlRC1NEaLC2v3uGMGb5LBaSQ7NB0ZQwFl9lhbrYLpaScqI+KpgJQtt6zmD8f
nmgoLYqhuDJflMXRP/Uw4N8hhIDe31E1hqwa1oa9S2Ye3m7oLnsoIw8maOvgRZ98
yD9xT+omLjkwJqHQAt1eQbYnJU1JYdhOn1wnHg==
-----END CERTIFICATE-----
