Certificate:
    Data:
        Version: 3 (0x2)
        Serial Number: 7 (0x7)
    Signature Algorithm: sha256WithRSAEncryption
        Issuer: C=US, ST=California, L=Goleta, O=Hewlett-Packard, OU=Helion Eucalyptus Development, CN=Helion Eucalyptus Development Root Certification Authority
        Validity
            Not Before: Apr 21 04:54:36 2015 GMT
            Not After : Apr 20 04:54:36 2018 GMT
        Subject: C=US, ST=California, O=Hewlett-Packard, OU=Helion Eucalyptus Development, CN=*.hp-gol01-d5.mjc.prc.eucalyptus-systems.com
        Subject Public Key Info:
            Public Key Algorithm: rsaEncryption
                Public-Key: (2048 bit)
                Modulus:
                    00:ad:f9:ae:2f:a2:3b:43:4d:55:4f:0c:62:d3:52:
                    d2:63:90:53:48:36:78:93:82:32:9a:8e:b7:fb:29:
                    91:19:a3:b1:7c:6f:36:77:69:13:4f:24:7a:78:8a:
                    b4:70:c8:cd:5e:d6:1b:92:51:72:03:ff:a6:fc:ac:
                    6b:f8:d9:6a:e1:d2:6f:a7:eb:f2:91:6d:fd:7c:75:
                    49:d3:3e:68:91:fc:0e:08:1e:13:8e:be:cf:91:6c:
                    b4:97:c3:9b:c0:48:06:e6:90:aa:82:98:77:1c:90:
                    7b:d3:02:58:f1:ed:31:8a:09:69:b0:32:d5:f9:dc:
                    34:57:36:f1:d4:f0:c0:08:5f:37:97:89:ba:0b:90:
                    6a:60:d5:a2:e7:3d:6d:f6:11:23:fa:cc:60:f4:57:
                    79:c6:b8:e5:a2:89:25:12:ac:2b:2f:d9:e6:91:14:
                    33:f7:8a:e6:ef:e0:bd:f3:a0:6e:89:35:86:77:ff:
                    3b:c2:8d:1a:29:0a:68:8f:09:ac:03:24:2c:68:5d:
                    f1:64:e5:91:57:31:e5:59:d9:ef:58:ce:c8:42:23:
                    9f:dd:d7:41:a7:86:96:37:12:a7:4c:e4:f6:21:c3:
                    0b:9c:f6:d1:c8:cb:a8:af:c8:11:29:28:fb:80:e4:
                    12:a4:c8:6b:ef:a2:5d:55:2f:ed:01:6f:93:82:82:
                    fb:f1
                Exponent: 65537 (0x10001)
        X509v3 extensions:
            X509v3 Basic Constraints: critical
                CA:FALSE
            X509v3 Extended Key Usage: 
                TLS Web Server Authentication, TLS Web Client Authentication
            X509v3 Key Usage: critical
                Digital Signature, Key Encipherment
            X509v3 Authority Key Identifier: 
                keyid:36:42:85:36:90:BA:3A:A6:E4:2E:05:59:A0:50:13:13:E4:D2:DB:58

            X509v3 Subject Alternative Name: 
                DNS:*.hp-gol01-d5.mjc.prc.eucalyptus-systems.com, DNS:hp-gol01-d5.mjc.prc.eucalyptus-systems.com
            X509v3 Subject Key Identifier: 
                5D:EB:50:D2:91:C7:46:BA:DD:14:42:81:1E:10:7A:10:EA:F1:1F:44
    Signature Algorithm: sha256WithRSAEncryption
         63:82:9b:df:84:d1:e6:a0:c4:17:53:37:cd:ea:8e:1a:38:95:
         ff:b5:04:94:d9:d5:ae:e0:ba:06:14:10:1d:05:0f:d9:3a:0d:
         cd:3f:43:23:be:67:7b:60:43:b0:fa:8e:c7:de:31:b7:82:b6:
         5c:73:c7:50:9b:32:9c:c3:93:8e:58:19:ac:c5:37:54:b2:fc:
         7e:42:d7:e3:82:be:ea:fc:9f:2f:cc:76:f5:97:ee:f2:c0:4b:
         c8:24:43:4f:3b:b1:5c:6b:29:68:80:12:18:a9:06:4a:7a:02:
         05:be:c1:3d:a6:93:ea:eb:d3:5e:dc:0f:d5:12:97:0f:8a:8c:
         28:65:29:e4:f8:1a:61:bd:0e:c2:d2:05:c5:76:96:c4:96:e1:
         47:43:6b:5b:c6:65:74:95:3e:37:ca:4d:7b:1e:4e:d4:13:e1:
         5a:f1:db:c7:cd:8f:0d:2c:ad:7a:65:dd:a9:ab:9b:97:16:6a:
         55:a6:b6:f8:d7:24:3f:94:e8:0a:f3:cc:15:61:4c:ea:0f:bb:
         63:98:21:a1:23:f3:bf:f0:1b:7d:de:49:c8:ca:e6:62:97:6b:
         f1:06:ba:24:4c:2a:fa:4c:60:c2:f2:f7:5a:a0:2a:8a:78:a4:
         eb:19:10:6a:a2:2b:fe:fd:45:9b:7f:75:66:bb:e3:d2:84:2e:
         de:dd:d2:20:8e:79:12:e5:27:33:37:e4:d3:3a:93:1c:74:57:
         70:9d:4f:b2:e7:6b:9f:cf:66:db:49:1f:ab:c2:5d:f8:97:78:
         6c:c4:67:6a:97:81:d7:75:6f:32:cf:83:a7:eb:a3:81:27:c4:
         b0:b0:98:05:52:b4:b6:fd:9c:6e:6c:bd:be:81:1d:f5:c7:e6:
         81:11:38:24:17:e5:3c:0d:b1:48:a2:bb:b0:ad:35:ac:60:b4:
         ce:ad:53:79:5f:6f:8f:b5:45:3b:d5:99:2a:0d:8e:26:c1:c3:
         4b:09:4f:5a:85:da:55:e1:14:eb:9a:33:26:f0:8a:04:4e:8b:
         05:8c:25:4c:1f:7d:3f:2f:ef:50:a1:0c:60:2f:58:23:ca:de:
         9a:78:bf:f0:e4:5e:72:86:00:63:e1:ae:cf:bd:df:83:d3:39:
         c4:15:5c:fa:44:42:a3:fb:cb:ed:9a:db:42:96:69:09:3d:ed:
         25:b6:bf:9f:ba:11:14:ba:d9:44:97:ee:75:45:6f:05:a1:9d:
         d8:2e:4d:78:0a:df:07:f2:22:de:68:c1:e3:1e:53:db:dc:e8:
         4d:1d:95:00:ec:bf:86:a2:a9:fb:8e:30:5b:f4:1d:f4:81:eb:
         5c:74:f2:56:4e:fa:f8:97:87:9c:0f:12:8a:e9:a0:0e:80:57:
         34:22:d7:38:5e:1c:24:11
-----BEGIN CERTIFICATE-----
MIIFuDCCA6CgAwIBAgIBBzANBgkqhkiG9w0BAQsFADCBujELMAkGA1UEBhMCVVMx
EzARBgNVBAgMCkNhbGlmb3JuaWExDzANBgNVBAcMBkdvbGV0YTEYMBYGA1UECgwP
SGV3bGV0dC1QYWNrYXJkMSYwJAYDVQQLDB1IZWxpb24gRXVjYWx5cHR1cyBEZXZl
bG9wbWVudDFDMEEGA1UEAww6SGVsaW9uIEV1Y2FseXB0dXMgRGV2ZWxvcG1lbnQg
Um9vdCBDZXJ0aWZpY2F0aW9uIEF1dGhvcml0eTAeFw0xNTA0MjEwNDU0MzZaFw0x
ODA0MjAwNDU0MzZaMIGbMQswCQYDVQQGEwJVUzETMBEGA1UECAwKQ2FsaWZvcm5p
YTEYMBYGA1UECgwPSGV3bGV0dC1QYWNrYXJkMSYwJAYDVQQLDB1IZWxpb24gRXVj
YWx5cHR1cyBEZXZlbG9wbWVudDE1MDMGA1UEAwwsKi5ocC1nb2wwMS1kNS5tamMu
cHJjLmV1Y2FseXB0dXMtc3lzdGVtcy5jb20wggEiMA0GCSqGSIb3DQEBAQUAA4IB
DwAwggEKAoIBAQCt+a4vojtDTVVPDGLTUtJjkFNINniTgjKajrf7KZEZo7F8bzZ3
aRNPJHp4irRwyM1e1huSUXID/6b8rGv42Wrh0m+n6/KRbf18dUnTPmiR/A4IHhOO
vs+RbLSXw5vASAbmkKqCmHcckHvTAljx7TGKCWmwMtX53DRXNvHU8MAIXzeXiboL
kGpg1aLnPW32ESP6zGD0V3nGuOWiiSUSrCsv2eaRFDP3iubv4L3zoG6JNYZ3/zvC
jRopCmiPCawDJCxoXfFk5ZFXMeVZ2e9YzshCI5/d10GnhpY3EqdM5PYhwwuc9tHI
y6ivyBEpKPuA5BKkyGvvol1VL+0Bb5OCgvvxAgMBAAGjgeUwgeIwDAYDVR0TAQH/
BAIwADAdBgNVHSUEFjAUBggrBgEFBQcDAQYIKwYBBQUHAwIwDgYDVR0PAQH/BAQD
AgWgMB8GA1UdIwQYMBaAFDZChTaQujqm5C4FWaBQExPk0ttYMGMGA1UdEQRcMFqC
LCouaHAtZ29sMDEtZDUubWpjLnByYy5ldWNhbHlwdHVzLXN5c3RlbXMuY29tgipo
cC1nb2wwMS1kNS5tamMucHJjLmV1Y2FseXB0dXMtc3lzdGVtcy5jb20wHQYDVR0O
BBYEFF3rUNKRx0a63RRCgR4QehDq8R9EMA0GCSqGSIb3DQEBCwUAA4ICAQBjgpvf
hNHmoMQXUzfN6o4aOJX/tQSU2dWu4LoGFBAdBQ/ZOg3NP0Mjvmd7YEOw+o7H3jG3
grZcc8dQmzKcw5OOWBmsxTdUsvx+Qtfjgr7q/J8vzHb1l+7ywEvIJENPO7Fcaylo
gBIYqQZKegIFvsE9ppPq69Ne3A/VEpcPiowoZSnk+BphvQ7C0gXFdpbEluFHQ2tb
xmV0lT43yk17Hk7UE+Fa8dvHzY8NLK16Zd2pq5uXFmpVprb41yQ/lOgK88wVYUzq
D7tjmCGhI/O/8Bt93knIyuZil2vxBrokTCr6TGDC8vdaoCqKeKTrGRBqoiv+/UWb
f3Vmu+PShC7e3dIgjnkS5SczN+TTOpMcdFdwnU+y52ufz2bbSR+rwl34l3hsxGdq
l4HXdW8yz4On66OBJ8SwsJgFUrS2/ZxubL2+gR31x+aBETgkF+U8DbFIoruwrTWs
YLTOrVN5X2+PtUU71ZkqDY4mwcNLCU9ahdpV4RTrmjMm8IoETosFjCVMH30/L+9Q
oQxgL1gjyt6aeL/w5F5yhgBj4a7Pvd+D0znEFVz6REKj+8vtmttClmkJPe0ltr+f
uhEUutlEl+51RW8FoZ3YLk14Ct8H8iLeaMHjHlPb3OhNHZUA7L+Goqn7jjBb9B30
getcdPJWTvr4l4ecDxKK6aAOgFc0Itc4XhwkEQ==
-----END CERTIFICATE-----
