Certificate:
    Data:
        Version: 3 (0x2)
        Serial Number: 1 (0x1)
    Signature Algorithm: sha256WithRSAEncryption
        Issuer: C=US, ST=California, L=Goleta, O=Hewlett-Packard, OU=Helion Eucalyptus Development, CN=Helion Eucalyptus Development Root Certification Authority
        Validity
            Not Before: Apr 21 04:20:25 2015 GMT
            Not After : Apr 20 04:20:25 2018 GMT
        Subject: C=US, ST=California, O=Hewlett-Packard, OU=Helion Eucalyptus Development, CN=*.hp-gol01-f1.mjc.prc.eucalyptus-systems.com
        Subject Public Key Info:
            Public Key Algorithm: rsaEncryption
                Public-Key: (2048 bit)
                Modulus:
                    00:d5:9b:cc:29:04:cf:44:92:46:35:24:2f:a0:0d:
                    55:b8:86:ed:b8:fa:4a:af:99:b5:de:3d:c6:3b:ab:
                    1d:2c:8d:cb:9d:1f:4d:5f:0d:07:c2:04:3d:70:59:
                    bc:a2:82:12:ac:2d:cb:b6:54:2c:93:b3:00:97:16:
                    b5:25:10:7e:7d:4f:4f:8a:60:71:57:c0:8d:7b:03:
                    69:72:08:f4:3b:c6:83:c6:4b:bc:5c:fe:5c:d7:76:
                    02:64:40:a4:8f:77:81:f9:2c:af:aa:4f:fe:ad:75:
                    e0:5b:f3:07:6f:60:57:05:00:9e:2e:52:c4:78:94:
                    d1:d8:49:18:e1:63:6e:86:ce:cd:c1:cd:32:b1:a7:
                    5a:07:07:4a:5c:7e:27:97:c3:28:8e:6e:8e:70:87:
                    5f:bf:07:18:57:f4:c3:50:ea:79:00:c4:fd:7d:f5:
                    ea:3e:1e:39:17:a3:bd:1d:91:af:40:4a:e5:07:10:
                    f1:2a:19:3f:08:2c:fc:40:38:97:be:3b:32:25:24:
                    eb:8c:90:6e:f2:38:fe:c4:5e:22:be:b5:1e:f8:07:
                    68:75:48:5c:29:32:a3:11:4b:39:21:fc:e9:eb:75:
                    a0:56:85:1b:6c:5d:a1:02:1c:66:32:17:14:3b:d7:
                    d0:57:bd:3f:8a:33:bd:2c:2d:9f:16:f3:51:1d:d3:
                    d6:55
                Exponent: 65537 (0x10001)
        X509v3 extensions:
            X509v3 Basic Constraints: critical
                CA:FALSE
            X509v3 Extended Key Usage: 
                TLS Web Server Authentication, TLS Web Client Authentication
            X509v3 Key Usage: critical
                Digital Signature, Key Encipherment
            X509v3 Authority Key Identifier: 
                keyid:36:42:85:36:90:BA:3A:A6:E4:2E:05:59:A0:50:13:13:E4:D2:DB:58

            X509v3 Subject Alternative Name: 
                DNS:*.hp-gol01-f1.mjc.prc.eucalyptus-systems.com, DNS:hp-gol01-f1.mjc.prc.eucalyptus-systems.com
            X509v3 Subject Key Identifier: 
                56:DB:A8:51:C4:1E:E8:8E:D0:C8:9C:6A:A1:C1:13:4E:93:52:4D:67
    Signature Algorithm: sha256WithRSAEncryption
         bf:16:b3:dc:63:40:3d:52:e8:14:76:56:cf:2d:5d:92:50:5e:
         bd:10:3e:af:f7:fe:45:cf:72:31:c1:9a:ef:97:67:ec:75:19:
         d1:32:cc:7a:ac:a7:e0:22:d8:ed:7c:47:7a:b3:46:76:8a:66:
         7d:23:38:bd:4e:75:79:2c:b6:72:e5:a2:bf:25:de:5b:77:28:
         3e:4b:ea:e7:44:da:94:b1:8d:c6:6d:b8:37:f8:f5:c3:ca:0f:
         87:7b:5d:9a:34:72:19:9e:7a:bf:12:36:48:43:97:6f:f4:8c:
         3a:04:7c:37:ac:78:61:7d:c3:c8:50:26:df:ef:94:8b:20:2f:
         8b:f1:46:ee:d4:85:41:cc:6d:1b:9d:7b:d3:0d:ec:8e:3f:5b:
         b1:b5:f1:61:7c:45:89:de:69:2f:14:ff:af:02:b2:56:f9:64:
         df:43:ec:84:90:d7:e7:a0:33:6c:1a:d7:59:9b:10:d8:94:5f:
         5f:18:12:14:c2:a5:1f:02:8a:94:0e:cf:84:d0:76:83:88:5d:
         0f:9d:d9:3a:4f:ba:fa:97:00:40:d6:55:89:1e:e0:19:d2:cb:
         88:b9:d4:6e:b4:e4:e6:67:16:b6:79:66:7d:4f:03:76:28:22:
         e2:f3:d3:d8:f6:a6:ec:93:d5:18:b6:27:07:5e:8f:61:9c:9b:
         bc:02:69:14:99:66:86:69:07:e3:65:99:73:02:ef:e4:23:9f:
         6d:6f:ba:fd:49:cc:a9:44:07:ac:76:ae:fa:2e:dd:13:e0:28:
         3b:ee:82:c2:6e:8b:62:a6:0c:4b:80:3d:a4:fe:b9:10:2b:ea:
         dd:9b:7d:bd:63:a6:3c:3c:8b:db:4b:3c:d5:01:3d:24:80:b2:
         1f:6e:24:93:19:f5:62:43:a4:bc:c7:f7:60:11:fd:85:08:74:
         54:bd:7c:d9:93:34:83:58:89:41:34:b1:bc:0d:1a:dd:c0:34:
         28:5e:53:32:76:63:cd:f2:90:18:38:f3:4e:32:74:a1:c7:34:
         fb:ee:cd:77:e1:05:02:c3:56:82:b9:31:af:e9:31:dd:87:29:
         8d:7b:f9:00:8f:bc:13:d6:d9:d3:8b:ee:f5:6c:b6:42:c5:42:
         48:30:5c:f1:fc:ff:5d:13:e2:3a:48:ce:3a:4c:b3:aa:3a:5a:
         76:48:2e:d9:68:a5:f3:96:3d:7d:56:63:5a:3c:78:33:7a:14:
         f3:e8:21:f1:1c:eb:4a:67:b7:82:4e:90:37:da:e1:5f:e5:21:
         06:69:fd:d5:d1:17:55:16:1d:b6:34:9d:9e:be:ef:db:ce:ae:
         f8:00:46:47:2f:2d:c0:02:4c:33:b4:d7:31:f4:2b:2d:f1:89:
         f1:9a:69:4d:42:0d:08:35
-----BEGIN CERTIFICATE-----
MIIFuDCCA6CgAwIBAgIBATANBgkqhkiG9w0BAQsFADCBujELMAkGA1UEBhMCVVMx
EzARBgNVBAgMCkNhbGlmb3JuaWExDzANBgNVBAcMBkdvbGV0YTEYMBYGA1UECgwP
SGV3bGV0dC1QYWNrYXJkMSYwJAYDVQQLDB1IZWxpb24gRXVjYWx5cHR1cyBEZXZl
bG9wbWVudDFDMEEGA1UEAww6SGVsaW9uIEV1Y2FseXB0dXMgRGV2ZWxvcG1lbnQg
Um9vdCBDZXJ0aWZpY2F0aW9uIEF1dGhvcml0eTAeFw0xNTA0MjEwNDIwMjVaFw0x
ODA0MjAwNDIwMjVaMIGbMQswCQYDVQQGEwJVUzETMBEGA1UECAwKQ2FsaWZvcm5p
YTEYMBYGA1UECgwPSGV3bGV0dC1QYWNrYXJkMSYwJAYDVQQLDB1IZWxpb24gRXVj
YWx5cHR1cyBEZXZlbG9wbWVudDE1MDMGA1UEAwwsKi5ocC1nb2wwMS1mMS5tamMu
cHJjLmV1Y2FseXB0dXMtc3lzdGVtcy5jb20wggEiMA0GCSqGSIb3DQEBAQUAA4IB
DwAwggEKAoIBAQDVm8wpBM9EkkY1JC+gDVW4hu24+kqvmbXePcY7qx0sjcudH01f
DQfCBD1wWbyighKsLcu2VCyTswCXFrUlEH59T0+KYHFXwI17A2lyCPQ7xoPGS7xc
/lzXdgJkQKSPd4H5LK+qT/6tdeBb8wdvYFcFAJ4uUsR4lNHYSRjhY26Gzs3BzTKx
p1oHB0pcfieXwyiObo5wh1+/BxhX9MNQ6nkAxP199eo+HjkXo70dka9ASuUHEPEq
GT8ILPxAOJe+OzIlJOuMkG7yOP7EXiK+tR74B2h1SFwpMqMRSzkh/OnrdaBWhRts
XaECHGYyFxQ719BXvT+KM70sLZ8W81Ed09ZVAgMBAAGjgeUwgeIwDAYDVR0TAQH/
BAIwADAdBgNVHSUEFjAUBggrBgEFBQcDAQYIKwYBBQUHAwIwDgYDVR0PAQH/BAQD
AgWgMB8GA1UdIwQYMBaAFDZChTaQujqm5C4FWaBQExPk0ttYMGMGA1UdEQRcMFqC
LCouaHAtZ29sMDEtZjEubWpjLnByYy5ldWNhbHlwdHVzLXN5c3RlbXMuY29tgipo
cC1nb2wwMS1mMS5tamMucHJjLmV1Y2FseXB0dXMtc3lzdGVtcy5jb20wHQYDVR0O
BBYEFFbbqFHEHuiO0MicaqHBE06TUk1nMA0GCSqGSIb3DQEBCwUAA4ICAQC/FrPc
Y0A9UugUdlbPLV2SUF69ED6v9/5Fz3IxwZrvl2fsdRnRMsx6rKfgItjtfEd6s0Z2
imZ9Izi9TnV5LLZy5aK/Jd5bdyg+S+rnRNqUsY3Gbbg3+PXDyg+He12aNHIZnnq/
EjZIQ5dv9Iw6BHw3rHhhfcPIUCbf75SLIC+L8Ubu1IVBzG0bnXvTDeyOP1uxtfFh
fEWJ3mkvFP+vArJW+WTfQ+yEkNfnoDNsGtdZmxDYlF9fGBIUwqUfAoqUDs+E0HaD
iF0Pndk6T7r6lwBA1lWJHuAZ0suIudRutOTmZxa2eWZ9TwN2KCLi89PY9qbsk9UY
ticHXo9hnJu8AmkUmWaGaQfjZZlzAu/kI59tb7r9ScypRAesdq76Lt0T4Cg77oLC
botipgxLgD2k/rkQK+rdm329Y6Y8PIvbSzzVAT0kgLIfbiSTGfViQ6S8x/dgEf2F
CHRUvXzZkzSDWIlBNLG8DRrdwDQoXlMydmPN8pAYOPNOMnShxzT77s134QUCw1aC
uTGv6THdhymNe/kAj7wT1tnTi+71bLZCxUJIMFzx/P9dE+I6SM46TLOqOlp2SC7Z
aKXzlj19VmNaPHgzehTz6CHxHOtKZ7eCTpA32uFf5SEGaf3V0RdVFh22NJ2evu/b
zq74AEZHLy3AAkwztNcx9Cst8YnxmmlNQg0INQ==
-----END CERTIFICATE-----
