Certificate:
    Data:
        Version: 3 (0x2)
        Serial Number: 32 (0x20)
    Signature Algorithm: sha256WithRSAEncryption
        Issuer: C=US, ST=California, L=Goleta, O=Hewlett-Packard, OU=Helion Eucalyptus Development, CN=Helion Eucalyptus Development Root Certification Authority
        Validity
            Not Before: Oct 24 23:00:24 2016 GMT
            Not After : Oct 24 23:00:24 2019 GMT
        Subject: C=US, ST=California, O=Hewlett-Packard, OU=Helion Eucalyptus Development, CN=*.hpe-gol01-d7.mjc.prc.eucalyptus-systems.com
        Subject Public Key Info:
            Public Key Algorithm: rsaEncryption
                Public-Key: (2048 bit)
                Modulus:
                    00:be:5c:75:5f:e3:25:f5:eb:83:80:10:94:60:e1:
                    f6:5d:d9:13:d7:14:9d:79:9a:d0:3f:d2:27:31:86:
                    56:c2:1e:ea:89:ed:2b:83:5e:58:c3:a2:84:39:ed:
                    57:42:96:c0:30:cf:65:23:1d:3d:a4:b4:37:1f:c7:
                    11:dc:bb:91:67:43:17:d2:71:31:17:f2:0d:07:f6:
                    72:4b:6c:e6:d6:2c:4b:a6:20:af:a8:e1:c0:10:24:
                    4d:b5:ab:35:a9:23:f0:f8:73:1b:ed:41:6e:6c:ec:
                    1e:3d:7c:84:5b:bf:8d:17:fa:78:2b:45:ef:30:78:
                    ec:e5:d4:73:9a:9c:fd:21:ea:8d:5a:12:bc:00:3a:
                    80:6b:1c:81:b7:8e:6d:42:d5:2d:e4:3d:b3:5d:e5:
                    62:1e:15:3e:78:8b:2e:99:5e:92:4f:4f:dc:fe:96:
                    46:14:63:c8:11:23:47:f5:40:61:e7:71:c1:05:5f:
                    7d:6f:5f:1c:27:1d:81:ea:ca:e1:3e:99:02:1c:60:
                    d6:60:33:d8:07:85:14:a3:52:1e:2c:e0:21:8f:d4:
                    5e:c2:7c:48:e4:ee:6d:9e:12:cf:ce:fc:8f:f6:2d:
                    8e:a8:13:81:9f:70:4c:52:61:ed:76:69:ff:72:41:
                    2f:f8:b1:a6:9b:da:9f:72:2b:17:34:86:1a:ea:85:
                    9b:29
                Exponent: 65537 (0x10001)
        X509v3 extensions:
            X509v3 Basic Constraints: critical
                CA:FALSE
            X509v3 Extended Key Usage: 
                TLS Web Server Authentication, TLS Web Client Authentication
            X509v3 Key Usage: critical
                Digital Signature, Key Encipherment
            X509v3 Authority Key Identifier: 
                keyid:36:42:85:36:90:BA:3A:A6:E4:2E:05:59:A0:50:13:13:E4:D2:DB:58

            X509v3 Subject Alternative Name: 
                DNS:*.hpe-gol01-d7.mjc.prc.eucalyptus-systems.com, DNS:hpe-gol01-d7.mjc.prc.eucalyptus-systems.com, DNS:console-hpe-gol01-d7.mjc.prc.eucalyptus-systems.com
            X509v3 Subject Key Identifier: 
                E1:43:B4:CF:08:F6:4F:79:E2:7F:EF:82:3C:02:D3:E6:94:11:1E:78
    Signature Algorithm: sha256WithRSAEncryption
         36:c9:3c:70:84:08:60:6e:61:3f:5a:d5:2e:e6:ce:a4:43:81:
         a4:ea:0c:ed:a4:1c:77:16:05:79:33:b1:a9:fc:e4:63:ca:84:
         5d:8a:0c:d9:a4:d9:0d:4d:57:f4:50:9c:ad:fd:9d:d0:23:94:
         77:89:a2:6f:a0:f3:2e:0c:2f:b5:41:6f:89:14:2b:7b:29:1b:
         f9:5b:55:d4:09:88:19:07:13:d5:ed:ec:30:7e:cc:8a:65:d0:
         49:87:07:9f:c3:78:79:91:16:db:94:b6:ff:ae:c2:d0:8e:b0:
         f9:87:85:88:9d:97:84:b7:54:17:ac:97:e9:61:c7:4d:55:37:
         ce:b4:88:7a:25:bc:66:7c:56:9f:ac:ff:f0:5e:da:9c:a5:07:
         27:42:ca:06:62:5f:c8:9a:3b:eb:16:3a:35:4f:21:93:16:06:
         90:9c:b4:60:34:a4:75:24:58:1b:1d:0c:0a:34:f9:af:8a:5b:
         66:be:92:7d:42:e8:a2:5c:90:e1:04:b3:1d:94:3a:76:60:cf:
         c1:25:36:1d:89:3a:0f:0f:2e:a7:9e:e8:ba:b5:5f:a5:8d:92:
         c2:87:90:5e:94:62:77:c2:0d:44:43:50:80:45:33:ad:4c:4a:
         ee:53:8c:19:e9:7b:31:33:8b:04:e0:50:6c:88:63:7b:c5:f5:
         16:2e:b8:bd:c6:d1:74:5f:96:b8:b7:ee:ba:3a:b8:67:ef:ea:
         4d:bd:9a:57:65:f6:c8:a5:a0:1b:b6:d5:8f:a0:3e:44:1a:47:
         5a:76:2b:c5:39:59:79:d3:bf:be:a9:78:1d:10:df:b6:2f:7f:
         1c:d0:5c:e9:4c:6c:fb:10:fe:e7:1d:a6:59:90:3e:5b:53:e0:
         7b:cd:3b:d4:3f:8e:4f:dd:e5:16:4d:88:10:07:d9:cc:ea:65:
         18:07:36:7b:d4:c1:e3:d8:4f:3f:89:96:af:53:0c:78:2c:f0:
         73:01:b5:eb:50:73:50:55:f9:bf:9a:37:cb:57:60:20:42:fd:
         2b:c5:48:b2:d8:82:98:37:54:08:47:69:26:2e:69:cb:0d:dc:
         cf:9c:59:d4:32:07:7d:85:f3:61:d5:fe:77:4c:a8:21:0f:85:
         b7:8a:39:70:71:77:e7:0f:3c:be:ca:86:08:c5:1d:a9:2c:6f:
         f8:6f:12:5a:56:ff:eb:23:20:19:ac:93:25:aa:05:93:5c:28:
         f3:87:8f:48:d5:d8:e2:e9:b3:d3:28:e9:f2:3f:de:9d:e9:91:
         d9:94:36:f0:ec:1c:65:52:1d:5b:e3:f1:e4:45:01:2f:b7:af:
         14:d9:3b:9d:6b:8a:a1:2a:29:64:20:a0:e2:c0:6e:fd:06:1b:
         fa:24:44:c8:6f:60:15:c4
-----BEGIN CERTIFICATE-----
MIIF9TCCA92gAwIBAgIBIDANBgkqhkiG9w0BAQsFADCBujELMAkGA1UEBhMCVVMx
EzARBgNVBAgMCkNhbGlmb3JuaWExDzANBgNVBAcMBkdvbGV0YTEYMBYGA1UECgwP
SGV3bGV0dC1QYWNrYXJkMSYwJAYDVQQLDB1IZWxpb24gRXVjYWx5cHR1cyBEZXZl
bG9wbWVudDFDMEEGA1UEAww6SGVsaW9uIEV1Y2FseXB0dXMgRGV2ZWxvcG1lbnQg
Um9vdCBDZXJ0aWZpY2F0aW9uIEF1dGhvcml0eTAeFw0xNjEwMjQyMzAwMjRaFw0x
OTEwMjQyMzAwMjRaMIGcMQswCQYDVQQGEwJVUzETMBEGA1UECAwKQ2FsaWZvcm5p
YTEYMBYGA1UECgwPSGV3bGV0dC1QYWNrYXJkMSYwJAYDVQQLDB1IZWxpb24gRXVj
YWx5cHR1cyBEZXZlbG9wbWVudDE2MDQGA1UEAwwtKi5ocGUtZ29sMDEtZDcubWpj
LnByYy5ldWNhbHlwdHVzLXN5c3RlbXMuY29tMIIBIjANBgkqhkiG9w0BAQEFAAOC
AQ8AMIIBCgKCAQEAvlx1X+Ml9euDgBCUYOH2XdkT1xSdeZrQP9InMYZWwh7qie0r
g15Yw6KEOe1XQpbAMM9lIx09pLQ3H8cR3LuRZ0MX0nExF/INB/ZyS2zm1ixLpiCv
qOHAECRNtas1qSPw+HMb7UFubOwePXyEW7+NF/p4K0XvMHjs5dRzmpz9IeqNWhK8
ADqAaxyBt45tQtUt5D2zXeViHhU+eIsumV6ST0/c/pZGFGPIESNH9UBh53HBBV99
b18cJx2B6srhPpkCHGDWYDPYB4UUo1IeLOAhj9RewnxI5O5tnhLPzvyP9i2OqBOB
n3BMUmHtdmn/ckEv+LGmm9qfcisXNIYa6oWbKQIDAQABo4IBIDCCARwwDAYDVR0T
AQH/BAIwADAdBgNVHSUEFjAUBggrBgEFBQcDAQYIKwYBBQUHAwIwDgYDVR0PAQH/
BAQDAgWgMB8GA1UdIwQYMBaAFDZChTaQujqm5C4FWaBQExPk0ttYMIGcBgNVHREE
gZQwgZGCLSouaHBlLWdvbDAxLWQ3Lm1qYy5wcmMuZXVjYWx5cHR1cy1zeXN0ZW1z
LmNvbYIraHBlLWdvbDAxLWQ3Lm1qYy5wcmMuZXVjYWx5cHR1cy1zeXN0ZW1zLmNv
bYIzY29uc29sZS1ocGUtZ29sMDEtZDcubWpjLnByYy5ldWNhbHlwdHVzLXN5c3Rl
bXMuY29tMB0GA1UdDgQWBBThQ7TPCPZPeeJ/74I8AtPmlBEeeDANBgkqhkiG9w0B
AQsFAAOCAgEANsk8cIQIYG5hP1rVLubOpEOBpOoM7aQcdxYFeTOxqfzkY8qEXYoM
2aTZDU1X9FCcrf2d0COUd4mib6DzLgwvtUFviRQreykb+VtV1AmIGQcT1e3sMH7M
imXQSYcHn8N4eZEW25S2/67C0I6w+YeFiJ2XhLdUF6yX6WHHTVU3zrSIeiW8ZnxW
n6z/8F7anKUHJ0LKBmJfyJo76xY6NU8hkxYGkJy0YDSkdSRYGx0MCjT5r4pbZr6S
fULoolyQ4QSzHZQ6dmDPwSU2HYk6Dw8up57ourVfpY2SwoeQXpRid8INRENQgEUz
rUxK7lOMGel7MTOLBOBQbIhje8X1Fi64vcbRdF+WuLfuujq4Z+/qTb2aV2X2yKWg
G7bVj6A+RBpHWnYrxTlZedO/vql4HRDfti9/HNBc6Uxs+xD+5x2mWZA+W1Pge807
1D+OT93lFk2IEAfZzOplGAc2e9TB49hPP4mWr1MMeCzwcwG161BzUFX5v5o3y1dg
IEL9K8VIstiCmDdUCEdpJi5pyw3cz5xZ1DIHfYXzYdX+d0yoIQ+Ft4o5cHF35w88
vsqGCMUdqSxv+G8SWlb/6yMgGayTJaoFk1wo84ePSNXY4umz0yjp8j/enemR2ZQ2
8OwcZVIdW+Px5EUBL7evFNk7nWuKoSopZCCg4sBu/QYb+iREyG9gFcQ=
-----END CERTIFICATE-----
