Certificate:
    Data:
        Version: 3 (0x2)
        Serial Number: 10 (0xa)
    Signature Algorithm: sha256WithRSAEncryption
        Issuer: C=US, ST=California, L=Goleta, O=Hewlett-Packard, OU=Helion Eucalyptus Development, CN=Helion Eucalyptus Development Root Certification Authority
        Validity
            Not Before: Apr 21 05:09:53 2015 GMT
            Not After : Apr 20 05:09:53 2018 GMT
        Subject: C=US, ST=California, O=Hewlett-Packard, OU=Helion Eucalyptus Development, CN=*.hp-gol01-d6.mjc.prc.eucalyptus-systems.com
        Subject Public Key Info:
            Public Key Algorithm: rsaEncryption
                Public-Key: (2048 bit)
                Modulus:
                    00:ea:1f:49:82:42:cb:52:a6:7a:d1:d9:fb:0d:f5:
                    ce:06:97:78:e2:aa:ea:4c:03:af:f9:77:14:5d:fe:
                    8f:d8:b4:e4:48:9a:1b:f4:a5:08:4d:68:d1:a5:c9:
                    98:fe:ea:4b:76:1b:6a:e2:b5:8e:2a:8a:49:19:40:
                    55:07:34:6d:d7:30:9c:9c:2f:6d:a4:35:18:72:2d:
                    94:42:52:ef:14:47:c9:93:19:2d:42:f8:97:db:63:
                    ca:06:bb:f7:24:2b:a3:2e:f3:c2:64:58:59:d3:6b:
                    e6:95:94:12:8b:af:1e:71:41:f2:ff:2b:ac:ed:4e:
                    38:cf:8e:e0:af:00:d0:f7:18:75:81:e1:1d:ee:34:
                    dd:bb:3c:63:15:d5:38:53:ac:a8:f1:f1:da:6b:4a:
                    9b:16:cf:be:1e:8f:3d:d5:1f:93:1c:65:d8:1b:5f:
                    3a:de:31:12:b1:51:4c:59:f3:a5:0f:d2:e4:38:db:
                    b4:4f:ca:f3:5c:1a:52:7d:7c:3f:e3:1d:46:75:fe:
                    d7:84:85:aa:23:2a:62:46:ab:0c:e6:11:ef:13:3e:
                    68:56:a9:9e:51:10:b7:45:d0:61:fc:08:7a:5b:11:
                    97:c0:e6:fa:71:77:fe:ef:29:31:2e:1d:c1:d5:14:
                    32:8e:db:aa:9e:29:e9:49:8b:01:6a:cd:e7:20:a3:
                    ec:f9
                Exponent: 65537 (0x10001)
        X509v3 extensions:
            X509v3 Basic Constraints: critical
                CA:FALSE
            X509v3 Extended Key Usage: 
                TLS Web Server Authentication, TLS Web Client Authentication
            X509v3 Key Usage: critical
                Digital Signature, Key Encipherment
            X509v3 Authority Key Identifier: 
                keyid:36:42:85:36:90:BA:3A:A6:E4:2E:05:59:A0:50:13:13:E4:D2:DB:58

            X509v3 Subject Alternative Name: 
                DNS:*.hp-gol01-d6.mjc.prc.eucalyptus-systems.com, DNS:hp-gol01-d6.mjc.prc.eucalyptus-systems.com
            X509v3 Subject Key Identifier: 
                5E:11:70:CC:B2:DA:9F:0A:19:F6:3C:E4:A8:E8:26:A6:64:86:EC:FD
    Signature Algorithm: sha256WithRSAEncryption
         54:09:6e:b8:d7:b8:e4:c6:4e:09:c6:27:18:7f:d2:1e:db:7f:
         a5:88:3a:cc:15:6a:7e:b9:ac:73:55:0e:f7:18:57:f9:37:01:
         56:41:8b:4d:2c:f7:7b:5e:9f:af:65:06:57:6d:6c:ba:14:cc:
         28:f1:db:45:a3:0b:9d:2d:e6:27:f1:db:be:db:1b:06:3a:7a:
         d2:1c:51:11:c8:97:51:48:e6:73:32:ec:98:0a:af:6e:f5:ba:
         bb:62:f3:20:40:48:25:13:64:cc:95:02:d0:b7:6b:d5:da:4a:
         85:11:60:b9:32:34:a8:3d:91:c5:0f:8c:f9:7c:fc:ad:0c:47:
         b8:fd:82:16:5e:a3:01:7f:c0:39:94:e2:77:3a:57:61:ce:dc:
         ee:8d:9b:1f:d1:5f:0f:2c:5d:f3:9e:53:76:76:46:ac:04:5c:
         1e:e4:24:ad:8c:0e:62:f1:db:9b:f5:4e:ac:c5:8f:99:3c:cd:
         c7:33:46:0d:d0:83:67:b5:1a:64:f7:e6:82:48:3e:ab:e8:c2:
         0c:5e:b6:ef:a6:6e:3e:c4:7f:f1:da:5a:8b:ab:a4:d2:34:d7:
         96:07:95:2c:f8:a9:e5:87:b0:76:9f:ab:d6:a5:16:fe:6e:de:
         0c:4c:5a:4f:3f:53:50:a1:26:fb:55:94:4b:42:ec:39:d6:9a:
         7c:d7:5b:0d:c8:03:88:f6:b5:05:62:fd:02:be:ec:17:0c:e1:
         f8:42:53:8f:87:3c:71:8d:69:5c:16:4c:c7:8b:0f:f3:6a:dd:
         76:1a:76:93:11:f8:09:77:a1:14:75:91:db:ed:ca:18:33:c1:
         00:4f:de:7f:ec:fe:4c:e5:e9:f2:de:23:4a:ac:8e:ca:f8:4c:
         85:2a:4a:85:65:d6:0e:5b:f3:03:c1:13:64:a5:43:5f:42:39:
         20:b7:45:63:1f:86:0b:7f:86:ad:53:de:25:24:d1:b4:30:18:
         cb:c2:04:df:23:99:32:f2:fb:20:ea:68:d9:55:50:da:d8:ec:
         2f:26:d8:6e:9d:06:5e:15:e7:87:40:e4:68:27:77:71:a8:de:
         31:aa:4c:03:17:bd:15:8b:41:24:a1:2b:18:0b:88:75:7b:99:
         da:4a:98:4f:61:5f:52:f3:e5:2d:3f:d1:59:44:01:a7:62:1d:
         b9:98:d9:f8:bb:55:fe:13:c0:f4:5d:d0:77:48:8d:f1:97:34:
         fd:cd:fb:65:e7:f4:99:b9:5e:3a:d0:4f:56:f1:d5:73:ec:23:
         ef:4d:e7:a1:9d:56:3b:66:70:47:54:15:b2:ec:28:79:49:56:
         ae:bf:dd:9c:8b:42:ef:38:c1:28:ae:2d:53:75:3c:47:1b:09:
         1e:57:e0:eb:62:32:c4:32
-----BEGIN CERTIFICATE-----
MIIFuDCCA6CgAwIBAgIBCjANBgkqhkiG9w0BAQsFADCBujELMAkGA1UEBhMCVVMx
EzARBgNVBAgMCkNhbGlmb3JuaWExDzANBgNVBAcMBkdvbGV0YTEYMBYGA1UECgwP
SGV3bGV0dC1QYWNrYXJkMSYwJAYDVQQLDB1IZWxpb24gRXVjYWx5cHR1cyBEZXZl
bG9wbWVudDFDMEEGA1UEAww6SGVsaW9uIEV1Y2FseXB0dXMgRGV2ZWxvcG1lbnQg
Um9vdCBDZXJ0aWZpY2F0aW9uIEF1dGhvcml0eTAeFw0xNTA0MjEwNTA5NTNaFw0x
ODA0MjAwNTA5NTNaMIGbMQswCQYDVQQGEwJVUzETMBEGA1UECAwKQ2FsaWZvcm5p
YTEYMBYGA1UECgwPSGV3bGV0dC1QYWNrYXJkMSYwJAYDVQQLDB1IZWxpb24gRXVj
YWx5cHR1cyBEZXZlbG9wbWVudDE1MDMGA1UEAwwsKi5ocC1nb2wwMS1kNi5tamMu
cHJjLmV1Y2FseXB0dXMtc3lzdGVtcy5jb20wggEiMA0GCSqGSIb3DQEBAQUAA4IB
DwAwggEKAoIBAQDqH0mCQstSpnrR2fsN9c4Gl3jiqupMA6/5dxRd/o/YtORImhv0
pQhNaNGlyZj+6kt2G2ritY4qikkZQFUHNG3XMJycL22kNRhyLZRCUu8UR8mTGS1C
+JfbY8oGu/ckK6Mu88JkWFnTa+aVlBKLrx5xQfL/K6ztTjjPjuCvAND3GHWB4R3u
NN27PGMV1ThTrKjx8dprSpsWz74ejz3VH5McZdgbXzreMRKxUUxZ86UP0uQ427RP
yvNcGlJ9fD/jHUZ1/teEhaojKmJGqwzmEe8TPmhWqZ5RELdF0GH8CHpbEZfA5vpx
d/7vKTEuHcHVFDKO26qeKelJiwFqzecgo+z5AgMBAAGjgeUwgeIwDAYDVR0TAQH/
BAIwADAdBgNVHSUEFjAUBggrBgEFBQcDAQYIKwYBBQUHAwIwDgYDVR0PAQH/BAQD
AgWgMB8GA1UdIwQYMBaAFDZChTaQujqm5C4FWaBQExPk0ttYMGMGA1UdEQRcMFqC
LCouaHAtZ29sMDEtZDYubWpjLnByYy5ldWNhbHlwdHVzLXN5c3RlbXMuY29tgipo
cC1nb2wwMS1kNi5tamMucHJjLmV1Y2FseXB0dXMtc3lzdGVtcy5jb20wHQYDVR0O
BBYEFF4RcMyy2p8KGfY85KjoJqZkhuz9MA0GCSqGSIb3DQEBCwUAA4ICAQBUCW64
17jkxk4JxicYf9Ie23+liDrMFWp+uaxzVQ73GFf5NwFWQYtNLPd7Xp+vZQZXbWy6
FMwo8dtFowudLeYn8du+2xsGOnrSHFERyJdRSOZzMuyYCq9u9bq7YvMgQEglE2TM
lQLQt2vV2kqFEWC5MjSoPZHFD4z5fPytDEe4/YIWXqMBf8A5lOJ3OldhztzujZsf
0V8PLF3znlN2dkasBFwe5CStjA5i8dub9U6sxY+ZPM3HM0YN0INntRpk9+aCSD6r
6MIMXrbvpm4+xH/x2lqLq6TSNNeWB5Us+Knlh7B2n6vWpRb+bt4MTFpPP1NQoSb7
VZRLQuw51pp811sNyAOI9rUFYv0CvuwXDOH4QlOPhzxxjWlcFkzHiw/zat12GnaT
EfgJd6EUdZHb7coYM8EAT95/7P5M5eny3iNKrI7K+EyFKkqFZdYOW/MDwRNkpUNf
Qjkgt0VjH4YLf4atU94lJNG0MBjLwgTfI5ky8vsg6mjZVVDa2OwvJthunQZeFeeH
QORoJ3dxqN4xqkwDF70Vi0EkoSsYC4h1e5naSphPYV9S8+UtP9FZRAGnYh25mNn4
u1X+E8D0XdB3SI3xlzT9zftl5/SZuV460E9W8dVz7CPvTeehnVY7ZnBHVBWy7Ch5
SVauv92ci0LvOMEori1TdTxHGwkeV+DrYjLEMg==
-----END CERTIFICATE-----
