Certificate:
    Data:
        Version: 3 (0x2)
        Serial Number: 3 (0x3)
    Signature Algorithm: sha256WithRSAEncryption
        Issuer: C=US, ST=California, L=Goleta, O=Hewlett-Packard, OU=Helion Eucalyptus Development, CN=Helion Eucalyptus Development Root Certification Authority
        Validity
            Not Before: Apr 21 04:36:17 2015 GMT
            Not After : Apr 20 04:36:17 2018 GMT
        Subject: C=US, ST=California, O=Hewlett-Packard, OU=Helion Eucalyptus Development, CN=*.hp-gol01-f3.mjc.prc.eucalyptus-systems.com
        Subject Public Key Info:
            Public Key Algorithm: rsaEncryption
                Public-Key: (2048 bit)
                Modulus:
                    00:cf:9e:4d:44:2d:b8:3d:14:de:a2:d4:0a:0f:07:
                    df:af:ac:b2:9e:6e:90:c2:f4:cf:93:a2:6f:7c:75:
                    64:3c:bd:b7:1c:6f:18:4d:d1:2d:ed:a7:74:72:82:
                    6a:de:8e:08:18:70:7e:da:91:1a:98:aa:5a:80:43:
                    21:45:8e:7c:06:c6:94:32:fe:b6:8a:eb:9f:be:06:
                    7c:0f:f2:9b:33:b7:f7:1a:0e:9a:a5:7b:e0:48:4d:
                    97:fc:8f:1e:a1:17:4c:bc:68:84:6e:77:a3:77:59:
                    6e:e6:d6:00:00:9b:de:6f:55:09:b2:f1:d7:1c:33:
                    85:fb:e1:90:b1:c0:4b:a4:90:25:5b:83:48:56:67:
                    56:da:5a:86:f3:99:25:5a:c5:6e:3e:49:8f:fc:bd:
                    dd:82:d9:ba:e6:87:2a:49:95:f6:a1:e0:db:df:9a:
                    51:34:ab:0b:ed:4e:fe:d5:1a:9b:0f:c0:c3:bf:6d:
                    07:c6:24:da:55:0d:19:10:8a:50:33:f3:5d:21:64:
                    80:bf:f1:df:fd:38:96:17:fb:55:59:5d:97:4b:cd:
                    dd:ca:ba:32:b2:53:1b:2a:c3:a9:a2:a2:89:f6:29:
                    ae:5d:5b:49:8a:a7:d2:27:99:fc:47:23:79:47:c9:
                    73:69:92:74:17:ad:29:f3:f8:8f:c8:34:05:73:22:
                    eb:6f
                Exponent: 65537 (0x10001)
        X509v3 extensions:
            X509v3 Basic Constraints: critical
                CA:FALSE
            X509v3 Extended Key Usage: 
                TLS Web Server Authentication, TLS Web Client Authentication
            X509v3 Key Usage: critical
                Digital Signature, Key Encipherment
            X509v3 Authority Key Identifier: 
                keyid:36:42:85:36:90:BA:3A:A6:E4:2E:05:59:A0:50:13:13:E4:D2:DB:58

            X509v3 Subject Alternative Name: 
                DNS:*.hp-gol01-f3.mjc.prc.eucalyptus-systems.com, DNS:hp-gol01-f3.mjc.prc.eucalyptus-systems.com
            X509v3 Subject Key Identifier: 
                B6:2E:7B:B1:DB:85:F0:14:D4:0F:45:8B:B2:76:96:A8:7F:8B:80:22
    Signature Algorithm: sha256WithRSAEncryption
         b3:53:c0:92:e2:f7:76:0d:f2:ff:15:c7:a9:95:d4:62:5e:ba:
         bf:c4:6d:5a:1d:85:88:96:d7:09:3d:fc:70:4c:00:ae:86:85:
         7d:b0:bd:56:28:62:3a:64:25:bc:82:5d:56:ae:12:2d:85:15:
         d5:1d:22:37:df:95:40:5e:97:65:c6:de:74:5b:91:a3:b5:73:
         9b:e2:c1:bc:df:60:a2:56:12:2d:98:74:66:ee:7f:ae:ed:5c:
         6a:60:c4:71:ff:49:97:47:64:d0:04:d4:85:7a:bc:21:f4:12:
         27:0a:e0:5b:9e:6b:78:34:c2:76:47:bc:51:04:60:53:73:67:
         4b:40:86:fe:37:d9:24:a1:1c:46:98:67:3b:50:ae:f1:be:ea:
         2b:a0:91:c7:59:8b:70:0f:26:43:56:76:d3:bf:16:13:25:86:
         c0:58:b3:65:e3:78:6c:ef:3e:0d:9f:22:97:0d:a6:5c:e0:15:
         81:de:8f:f0:2b:9a:28:02:5c:8a:bd:3f:35:18:db:21:12:a3:
         14:cc:62:ff:13:86:49:75:43:db:b6:2e:a2:c2:e2:c7:23:46:
         2a:59:88:af:3e:6d:01:55:bf:d4:a1:79:8d:87:27:04:4a:ac:
         49:51:0b:c4:78:c1:7d:b8:68:7e:e7:42:cf:14:4b:63:59:6b:
         5b:52:03:8b:7a:31:28:08:0b:07:d5:57:7c:8d:40:e6:14:b0:
         10:ef:45:5b:50:af:b7:43:59:8a:20:ff:19:c3:76:4f:28:31:
         a8:15:af:56:4a:c0:d6:c8:74:f4:74:96:4f:71:fc:25:8b:3e:
         f6:73:1c:9d:d0:73:27:26:a1:2c:3a:b6:df:53:c2:6b:8e:dd:
         d5:48:9a:46:b4:ae:a7:85:fc:0b:d5:5b:a9:4e:dc:bb:f2:21:
         27:22:06:96:17:11:5a:d2:9d:a6:f2:64:ef:b4:46:ef:4a:fd:
         65:8d:eb:12:fc:2d:44:a6:38:ed:58:70:8f:f9:c7:aa:ca:43:
         3b:e5:dc:b1:a8:db:f2:56:35:b4:95:00:7d:ee:6a:b0:18:2f:
         b6:a0:09:c2:51:91:25:bf:d4:98:12:28:fa:b0:6e:b9:de:fb:
         14:01:37:67:02:03:b6:6d:7e:43:2e:83:2e:55:21:30:47:79:
         03:19:6c:b4:52:4a:25:97:49:fa:ae:89:a4:4c:27:27:63:1e:
         2a:ae:b6:00:b5:7f:9b:8e:f0:44:fe:78:d3:2f:70:6c:60:cf:
         81:f4:55:24:a7:be:00:24:b1:0e:a9:1d:ec:cd:27:f1:20:63:
         e2:7e:56:d7:b3:be:b2:47:2c:10:01:b6:30:84:96:05:86:86:
         c5:4a:c4:4e:a2:4e:28:82
-----BEGIN CERTIFICATE-----
MIIFuDCCA6CgAwIBAgIBAzANBgkqhkiG9w0BAQsFADCBujELMAkGA1UEBhMCVVMx
EzARBgNVBAgMCkNhbGlmb3JuaWExDzANBgNVBAcMBkdvbGV0YTEYMBYGA1UECgwP
SGV3bGV0dC1QYWNrYXJkMSYwJAYDVQQLDB1IZWxpb24gRXVjYWx5cHR1cyBEZXZl
bG9wbWVudDFDMEEGA1UEAww6SGVsaW9uIEV1Y2FseXB0dXMgRGV2ZWxvcG1lbnQg
Um9vdCBDZXJ0aWZpY2F0aW9uIEF1dGhvcml0eTAeFw0xNTA0MjEwNDM2MTdaFw0x
ODA0MjAwNDM2MTdaMIGbMQswCQYDVQQGEwJVUzETMBEGA1UECAwKQ2FsaWZvcm5p
YTEYMBYGA1UECgwPSGV3bGV0dC1QYWNrYXJkMSYwJAYDVQQLDB1IZWxpb24gRXVj
YWx5cHR1cyBEZXZlbG9wbWVudDE1MDMGA1UEAwwsKi5ocC1nb2wwMS1mMy5tamMu
cHJjLmV1Y2FseXB0dXMtc3lzdGVtcy5jb20wggEiMA0GCSqGSIb3DQEBAQUAA4IB
DwAwggEKAoIBAQDPnk1ELbg9FN6i1AoPB9+vrLKebpDC9M+Tom98dWQ8vbccbxhN
0S3tp3RygmrejggYcH7akRqYqlqAQyFFjnwGxpQy/raK65++BnwP8pszt/caDpql
e+BITZf8jx6hF0y8aIRud6N3WW7m1gAAm95vVQmy8dccM4X74ZCxwEukkCVbg0hW
Z1baWobzmSVaxW4+SY/8vd2C2brmhypJlfah4NvfmlE0qwvtTv7VGpsPwMO/bQfG
JNpVDRkQilAz810hZIC/8d/9OJYX+1VZXZdLzd3KujKyUxsqw6mioon2Ka5dW0mK
p9InmfxHI3lHyXNpknQXrSnz+I/INAVzIutvAgMBAAGjgeUwgeIwDAYDVR0TAQH/
BAIwADAdBgNVHSUEFjAUBggrBgEFBQcDAQYIKwYBBQUHAwIwDgYDVR0PAQH/BAQD
AgWgMB8GA1UdIwQYMBaAFDZChTaQujqm5C4FWaBQExPk0ttYMGMGA1UdEQRcMFqC
LCouaHAtZ29sMDEtZjMubWpjLnByYy5ldWNhbHlwdHVzLXN5c3RlbXMuY29tgipo
cC1nb2wwMS1mMy5tamMucHJjLmV1Y2FseXB0dXMtc3lzdGVtcy5jb20wHQYDVR0O
BBYEFLYue7HbhfAU1A9Fi7J2lqh/i4AiMA0GCSqGSIb3DQEBCwUAA4ICAQCzU8CS
4vd2DfL/FcepldRiXrq/xG1aHYWIltcJPfxwTACuhoV9sL1WKGI6ZCW8gl1WrhIt
hRXVHSI335VAXpdlxt50W5GjtXOb4sG832CiVhItmHRm7n+u7VxqYMRx/0mXR2TQ
BNSFerwh9BInCuBbnmt4NMJ2R7xRBGBTc2dLQIb+N9kkoRxGmGc7UK7xvuoroJHH
WYtwDyZDVnbTvxYTJYbAWLNl43hs7z4NnyKXDaZc4BWB3o/wK5ooAlyKvT81GNsh
EqMUzGL/E4ZJdUPbti6iwuLHI0YqWYivPm0BVb/UoXmNhycESqxJUQvEeMF9uGh+
50LPFEtjWWtbUgOLejEoCAsH1Vd8jUDmFLAQ70VbUK+3Q1mKIP8Zw3ZPKDGoFa9W
SsDWyHT0dJZPcfwliz72cxyd0HMnJqEsOrbfU8Jrjt3VSJpGtK6nhfwL1VupTty7
8iEnIgaWFxFa0p2m8mTvtEbvSv1ljesS/C1EpjjtWHCP+ceqykM75dyxqNvyVjW0
lQB97mqwGC+2oAnCUZElv9SYEij6sG653vsUATdnAgO2bX5DLoMuVSEwR3kDGWy0
Ukoll0n6romkTCcnYx4qrrYAtX+bjvBE/njTL3BsYM+B9FUkp74AJLEOqR3szSfx
IGPiflbXs76yRywQAbYwhJYFhobFSsROok4ogg==
-----END CERTIFICATE-----
