Certificate:
    Data:
        Version: 3 (0x2)
        Serial Number: 13 (0xd)
    Signature Algorithm: sha256WithRSAEncryption
        Issuer: C=US, ST=California, L=Goleta, O=Hewlett-Packard, OU=Helion Eucalyptus Development, CN=Helion Eucalyptus Development Root Certification Authority
        Validity
            Not Before: Apr 21 05:25:16 2015 GMT
            Not After : Apr 20 05:25:16 2018 GMT
        Subject: C=US, ST=California, O=Hewlett-Packard, OU=Helion Eucalyptus Development, CN=*.mjc.prc.eucalyptus-systems.com
        Subject Public Key Info:
            Public Key Algorithm: rsaEncryption
                Public-Key: (2048 bit)
                Modulus:
                    00:e7:07:8d:33:16:5e:1b:06:6a:5e:0d:70:01:2a:
                    93:d4:c8:3b:dc:e7:57:73:29:36:74:8b:4a:8e:6a:
                    90:23:75:2a:59:6e:54:67:a2:72:8c:a4:c0:0d:58:
                    4b:85:a5:01:fa:8f:3f:08:af:c1:8c:19:cd:e7:4c:
                    3f:0c:09:e5:02:7e:e0:51:ad:ef:40:f6:e8:ef:aa:
                    19:7b:45:c6:78:13:a8:b4:0a:9f:99:c4:1f:53:d0:
                    53:ba:57:87:6e:f8:cf:9e:9c:ee:7e:86:4e:3a:b9:
                    1d:43:39:7a:fb:42:c3:a8:ac:6a:c2:19:2d:e2:4f:
                    fd:21:b4:8f:7b:ef:ba:c9:93:46:36:d0:a6:82:fb:
                    68:5f:58:83:b3:a7:5a:f8:cf:64:fd:74:a3:55:50:
                    81:3b:d5:2d:98:e4:c1:73:5f:a0:2d:07:f3:ea:d3:
                    fb:58:67:00:9e:23:92:22:e0:dd:85:9b:6d:02:ac:
                    fe:89:2c:d0:41:1f:80:5b:63:43:7b:e8:17:d1:90:
                    d5:48:98:bd:b6:dd:e6:4d:7a:03:39:37:1d:e3:60:
                    c2:b5:ed:88:a9:44:be:2c:5b:7f:95:b6:a6:60:ed:
                    7e:b7:1b:8d:a1:dc:77:f3:c4:69:d6:2f:1d:dc:2d:
                    93:c6:df:b0:9f:68:f8:04:4e:a4:82:22:2a:e5:8b:
                    c1:65
                Exponent: 65537 (0x10001)
        X509v3 extensions:
            X509v3 Basic Constraints: critical
                CA:FALSE
            X509v3 Extended Key Usage: 
                TLS Web Server Authentication, TLS Web Client Authentication
            X509v3 Key Usage: critical
                Digital Signature, Key Encipherment
            X509v3 Authority Key Identifier: 
                keyid:36:42:85:36:90:BA:3A:A6:E4:2E:05:59:A0:50:13:13:E4:D2:DB:58

            X509v3 Subject Alternative Name: 
                DNS:*.mjc.prc.eucalyptus-systems.com, DNS:mjc.prc.eucalyptus-systems.com
            X509v3 Subject Key Identifier: 
                82:9E:00:11:5D:88:C1:46:C9:48:67:80:42:79:94:43:CD:CD:55:05
    Signature Algorithm: sha256WithRSAEncryption
         3b:6f:82:94:d0:f6:54:96:9c:6b:08:cb:87:86:13:84:01:07:
         ff:2a:82:72:bf:20:ee:aa:0c:04:e7:e6:20:3e:3e:01:e7:b5:
         9e:21:fa:a3:b6:6e:f9:b7:aa:1a:7b:bd:e9:10:fe:2c:eb:33:
         fe:71:d7:1b:a0:21:6e:d2:ce:05:d1:34:ed:c1:2a:4b:38:76:
         17:36:ff:70:90:ae:60:2f:5e:52:ce:39:8c:53:c6:07:f1:84:
         41:8c:ed:bc:c6:f1:42:e4:2e:3d:89:2b:86:53:3c:7c:f0:f3:
         80:9a:6d:a4:bb:cb:d0:ef:18:09:55:9b:80:4a:84:6a:66:aa:
         1a:02:20:52:87:78:34:93:2f:d6:1a:6a:13:15:05:8f:0f:ef:
         2d:5c:35:1e:91:74:99:e8:8a:d6:46:ba:7b:f7:bb:35:41:2b:
         b7:12:ff:30:8e:a6:45:4e:49:de:6d:65:59:fa:f2:a9:0b:72:
         eb:89:9e:b3:b7:91:81:6f:0c:f8:01:ce:28:02:75:c7:52:b8:
         6d:98:73:ee:81:ef:b6:16:bf:36:74:c6:b5:a3:7f:f1:3e:29:
         e8:04:77:03:e1:bb:a1:92:75:01:a9:16:18:e3:50:8d:bc:96:
         8e:96:8d:a1:e4:6a:48:16:33:39:35:04:26:f4:d4:c5:72:58:
         6f:53:b3:6a:2f:d7:28:44:51:ee:55:35:59:4b:6b:6d:34:78:
         3b:94:82:f8:38:d6:18:8e:ca:38:f0:68:9e:ba:95:4b:b1:01:
         3f:81:fa:d9:f3:97:a7:95:e1:28:ee:8d:42:07:1e:2a:60:3b:
         7d:f2:d7:59:d7:9d:23:a4:1a:39:ff:c2:2d:05:f3:38:07:7d:
         26:bb:e9:e8:31:d2:f5:c9:a6:e6:c5:f9:0a:48:f0:1f:e8:49:
         c0:ad:44:ba:79:da:f8:69:30:0b:f0:7d:39:e5:f6:26:16:a9:
         fa:c8:c0:94:af:40:4d:53:4a:81:53:10:13:8b:3c:20:e9:10:
         53:51:4b:56:05:d7:e1:14:85:e3:92:c8:ba:f6:27:d6:d0:a8:
         36:3d:23:a5:cb:18:0a:b7:48:1b:fc:96:b9:90:f6:1e:86:06:
         30:03:11:fd:07:98:d9:6a:b3:b9:e2:c5:78:d0:e0:3e:7d:52:
         73:8d:26:55:52:b8:c4:ac:7a:4a:3e:f5:de:98:19:99:1c:4b:
         6c:60:90:a6:cf:2e:8c:6f:3a:8e:77:67:4a:41:1c:98:c4:09:
         57:a2:09:1c:e5:59:92:fc:c7:ff:43:08:fc:25:ad:6d:1d:be:
         b3:a2:01:2d:c1:8a:8b:2e:15:42:2e:f4:86:d2:62:89:d3:82:
         c8:d8:3d:2f:dd:43:3c:9b
-----BEGIN CERTIFICATE-----
MIIFlDCCA3ygAwIBAgIBDTANBgkqhkiG9w0BAQsFADCBujELMAkGA1UEBhMCVVMx
EzARBgNVBAgMCkNhbGlmb3JuaWExDzANBgNVBAcMBkdvbGV0YTEYMBYGA1UECgwP
SGV3bGV0dC1QYWNrYXJkMSYwJAYDVQQLDB1IZWxpb24gRXVjYWx5cHR1cyBEZXZl
bG9wbWVudDFDMEEGA1UEAww6SGVsaW9uIEV1Y2FseXB0dXMgRGV2ZWxvcG1lbnQg
Um9vdCBDZXJ0aWZpY2F0aW9uIEF1dGhvcml0eTAeFw0xNTA0MjEwNTI1MTZaFw0x
ODA0MjAwNTI1MTZaMIGPMQswCQYDVQQGEwJVUzETMBEGA1UECAwKQ2FsaWZvcm5p
YTEYMBYGA1UECgwPSGV3bGV0dC1QYWNrYXJkMSYwJAYDVQQLDB1IZWxpb24gRXVj
YWx5cHR1cyBEZXZlbG9wbWVudDEpMCcGA1UEAwwgKi5tamMucHJjLmV1Y2FseXB0
dXMtc3lzdGVtcy5jb20wggEiMA0GCSqGSIb3DQEBAQUAA4IBDwAwggEKAoIBAQDn
B40zFl4bBmpeDXABKpPUyDvc51dzKTZ0i0qOapAjdSpZblRnonKMpMANWEuFpQH6
jz8Ir8GMGc3nTD8MCeUCfuBRre9A9ujvqhl7RcZ4E6i0Cp+ZxB9T0FO6V4du+M+e
nO5+hk46uR1DOXr7QsOorGrCGS3iT/0htI9777rJk0Y20KaC+2hfWIOzp1r4z2T9
dKNVUIE71S2Y5MFzX6AtB/Pq0/tYZwCeI5Ii4N2Fm20CrP6JLNBBH4BbY0N76BfR
kNVImL223eZNegM5Nx3jYMK17YipRL4sW3+VtqZg7X63G42h3HfzxGnWLx3cLZPG
37CfaPgETqSCIirli8FlAgMBAAGjgc0wgcowDAYDVR0TAQH/BAIwADAdBgNVHSUE
FjAUBggrBgEFBQcDAQYIKwYBBQUHAwIwDgYDVR0PAQH/BAQDAgWgMB8GA1UdIwQY
MBaAFDZChTaQujqm5C4FWaBQExPk0ttYMEsGA1UdEQREMEKCICoubWpjLnByYy5l
dWNhbHlwdHVzLXN5c3RlbXMuY29tgh5tamMucHJjLmV1Y2FseXB0dXMtc3lzdGVt
cy5jb20wHQYDVR0OBBYEFIKeABFdiMFGyUhngEJ5lEPNzVUFMA0GCSqGSIb3DQEB
CwUAA4ICAQA7b4KU0PZUlpxrCMuHhhOEAQf/KoJyvyDuqgwE5+YgPj4B57WeIfqj
tm75t6oae73pEP4s6zP+cdcboCFu0s4F0TTtwSpLOHYXNv9wkK5gL15SzjmMU8YH
8YRBjO28xvFC5C49iSuGUzx88POAmm2ku8vQ7xgJVZuASoRqZqoaAiBSh3g0ky/W
GmoTFQWPD+8tXDUekXSZ6IrWRrp797s1QSu3Ev8wjqZFTknebWVZ+vKpC3LriZ6z
t5GBbwz4Ac4oAnXHUrhtmHPuge+2Fr82dMa1o3/xPinoBHcD4buhknUBqRYY41CN
vJaOlo2h5GpIFjM5NQQm9NTFclhvU7NqL9coRFHuVTVZS2ttNHg7lIL4ONYYjso4
8GieupVLsQE/gfrZ85enleEo7o1CBx4qYDt98tdZ150jpBo5/8ItBfM4B30mu+no
MdL1yabmxfkKSPAf6EnArUS6edr4aTAL8H055fYmFqn6yMCUr0BNU0qBUxATizwg
6RBTUUtWBdfhFIXjksi69ifW0Kg2PSOlyxgKt0gb/Ja5kPYehgYwAxH9B5jZarO5
4sV40OA+fVJzjSZVUrjErHpKPvXemBmZHEtsYJCmzy6MbzqOd2dKQRyYxAlXogkc
5VmS/Mf/Qwj8Ja1tHb6zogEtwYqLLhVCLvSG0mKJ04LI2D0v3UM8mw==
-----END CERTIFICATE-----
