Certificate:
    Data:
        Version: 3 (0x2)
        Serial Number: 29 (0x1d)
    Signature Algorithm: sha256WithRSAEncryption
        Issuer: C=US, ST=California, L=Goleta, O=Hewlett-Packard, OU=Helion Eucalyptus Development, CN=Helion Eucalyptus Development Root Certification Authority
        Validity
            Not Before: Oct 24 22:51:00 2016 GMT
            Not After : Oct 24 22:51:00 2019 GMT
        Subject: C=US, ST=California, O=Hewlett-Packard, OU=Helion Eucalyptus Development, CN=*.hpe-gol01-d4.mjc.prc.eucalyptus-systems.com
        Subject Public Key Info:
            Public Key Algorithm: rsaEncryption
                Public-Key: (2048 bit)
                Modulus:
                    00:da:60:a2:85:99:59:7e:c4:0c:3d:6a:99:1c:c2:
                    3e:d0:43:58:de:eb:36:1a:53:f8:2f:66:e1:6a:59:
                    ab:68:1c:25:10:11:bb:c8:89:68:7c:a2:93:5c:32:
                    ae:ee:1d:7d:c4:08:f1:a3:73:3b:31:85:c3:93:b0:
                    c6:58:2a:76:62:a2:37:1e:04:9d:f3:a6:bb:0b:21:
                    09:2b:99:19:aa:07:02:2e:59:e8:ec:b0:5e:7f:c3:
                    ed:be:3a:00:2c:25:04:7f:a6:cd:0e:92:04:d4:17:
                    19:ea:fb:19:cb:74:db:5f:4d:bc:bd:12:8a:2f:64:
                    29:6f:21:d4:fb:9e:b6:bb:34:59:3b:96:c2:69:a7:
                    0f:0d:57:55:a4:fd:27:e7:de:9f:c6:64:75:95:67:
                    08:6b:e2:3b:75:e9:7c:cd:b4:5f:05:81:2f:be:48:
                    5f:24:12:3f:09:69:72:af:7d:8c:d5:65:b0:6c:19:
                    be:bb:c8:be:f0:06:a3:5a:40:8a:ee:c6:14:df:88:
                    8e:07:a7:c6:9d:6f:bc:0d:ff:d3:50:df:50:f8:30:
                    86:25:89:90:87:aa:d2:2b:d7:bc:ac:8c:fd:f3:79:
                    88:0d:52:7d:d5:7d:39:28:66:1a:1e:d2:8f:10:bf:
                    a7:fb:e8:58:57:ac:78:a3:d9:3a:1f:e2:40:01:af:
                    63:61
                Exponent: 65537 (0x10001)
        X509v3 extensions:
            X509v3 Basic Constraints: critical
                CA:FALSE
            X509v3 Extended Key Usage: 
                TLS Web Server Authentication, TLS Web Client Authentication
            X509v3 Key Usage: critical
                Digital Signature, Key Encipherment
            X509v3 Authority Key Identifier: 
                keyid:36:42:85:36:90:BA:3A:A6:E4:2E:05:59:A0:50:13:13:E4:D2:DB:58

            X509v3 Subject Alternative Name: 
                DNS:*.hpe-gol01-d4.mjc.prc.eucalyptus-systems.com, DNS:hpe-gol01-d4.mjc.prc.eucalyptus-systems.com, DNS:console-hpe-gol01-d4.mjc.prc.eucalyptus-systems.com
            X509v3 Subject Key Identifier: 
                76:24:E6:97:E6:75:5D:C0:36:C2:1C:65:E8:6B:51:E8:3D:06:04:2A
    Signature Algorithm: sha256WithRSAEncryption
         47:7c:66:55:6f:47:3c:e3:20:1e:4f:ed:bd:55:d2:dd:33:38:
         c5:34:5d:d2:eb:1b:3c:62:c9:72:2a:01:7e:67:a4:c5:fa:59:
         78:99:ff:be:c0:96:f5:8a:80:a6:fc:48:95:38:8e:c1:0c:f4:
         c9:6c:bb:0a:fc:1f:7d:84:f8:c5:77:50:a2:4e:76:af:56:47:
         57:1e:02:06:cd:ab:11:f0:48:58:db:a8:36:4b:27:9a:fa:53:
         b9:51:69:ba:05:3f:e9:57:5b:b5:70:75:24:9a:48:5d:5f:a3:
         8d:93:de:ee:b3:37:88:e9:58:6a:d5:f3:27:be:8a:30:c8:5f:
         6e:61:d4:db:20:95:7f:d2:77:ea:83:a8:b1:6a:f3:71:e9:2d:
         16:11:84:a3:82:a9:83:56:0a:c6:48:a0:fc:ef:e0:81:aa:fb:
         aa:17:68:0a:84:03:ab:c8:51:d9:23:53:0f:12:04:11:45:03:
         ba:a8:94:96:30:50:ec:60:2e:33:9c:13:ce:2e:55:da:3d:63:
         5a:f8:fb:a0:fe:bd:2c:a1:38:3d:eb:30:5a:03:1a:27:b9:e5:
         47:91:5b:e5:7b:ca:b4:1b:a4:9f:df:d5:94:de:38:78:30:4f:
         9f:d2:4a:71:81:25:04:e6:10:65:d7:0a:5c:62:ac:26:72:72:
         32:ce:5d:8b:d5:8f:cf:ce:21:e0:97:20:1f:9c:a0:76:c0:70:
         50:e4:98:20:02:6c:43:c3:fa:eb:5e:54:78:db:ae:b3:c2:a1:
         05:9a:7d:05:0b:ac:33:3c:ea:c4:38:3d:c6:c0:d8:e7:c1:f2:
         ee:96:8b:01:81:83:5c:75:b1:7f:65:65:fa:98:2d:f3:d5:52:
         68:1a:0b:97:21:fc:45:27:9d:99:0f:96:7c:99:71:48:66:40:
         eb:34:1c:81:c5:ea:a7:14:0a:a8:fc:ce:23:54:f2:90:cc:f2:
         88:2a:83:88:b7:f4:bb:e7:9f:4e:91:2b:51:ee:af:38:3c:b3:
         54:e6:39:4e:4a:60:00:5c:ea:21:bc:08:33:c1:71:a8:1f:22:
         d3:30:42:15:f9:6e:83:14:98:6b:b8:0d:d7:4a:0a:4d:0e:aa:
         64:2b:1f:17:52:c6:a1:42:5a:94:96:4d:45:85:f2:8e:82:cd:
         cc:ee:58:7b:25:8b:06:64:81:fb:28:b3:7a:00:27:20:6b:c5:
         cd:20:eb:76:41:11:3f:4a:8c:e0:f4:79:39:d4:22:f2:fe:f8:
         cf:5c:4c:cc:da:e5:fe:3e:07:6a:9a:be:ac:a3:76:c7:e2:ce:
         d0:0a:5c:13:cd:95:b8:c4:6e:80:14:d6:0c:5f:8c:9e:ac:6f:
         c3:25:fa:92:6e:b7:57:d7
-----BEGIN CERTIFICATE-----
MIIF9TCCA92gAwIBAgIBHTANBgkqhkiG9w0BAQsFADCBujELMAkGA1UEBhMCVVMx
EzARBgNVBAgMCkNhbGlmb3JuaWExDzANBgNVBAcMBkdvbGV0YTEYMBYGA1UECgwP
SGV3bGV0dC1QYWNrYXJkMSYwJAYDVQQLDB1IZWxpb24gRXVjYWx5cHR1cyBEZXZl
bG9wbWVudDFDMEEGA1UEAww6SGVsaW9uIEV1Y2FseXB0dXMgRGV2ZWxvcG1lbnQg
Um9vdCBDZXJ0aWZpY2F0aW9uIEF1dGhvcml0eTAeFw0xNjEwMjQyMjUxMDBaFw0x
OTEwMjQyMjUxMDBaMIGcMQswCQYDVQQGEwJVUzETMBEGA1UECAwKQ2FsaWZvcm5p
YTEYMBYGA1UECgwPSGV3bGV0dC1QYWNrYXJkMSYwJAYDVQQLDB1IZWxpb24gRXVj
YWx5cHR1cyBEZXZlbG9wbWVudDE2MDQGA1UEAwwtKi5ocGUtZ29sMDEtZDQubWpj
LnByYy5ldWNhbHlwdHVzLXN5c3RlbXMuY29tMIIBIjANBgkqhkiG9w0BAQEFAAOC
AQ8AMIIBCgKCAQEA2mCihZlZfsQMPWqZHMI+0ENY3us2GlP4L2bhalmraBwlEBG7
yIlofKKTXDKu7h19xAjxo3M7MYXDk7DGWCp2YqI3HgSd86a7CyEJK5kZqgcCLlno
7LBef8PtvjoALCUEf6bNDpIE1BcZ6vsZy3TbX028vRKKL2QpbyHU+562uzRZO5bC
aacPDVdVpP0n596fxmR1lWcIa+I7del8zbRfBYEvvkhfJBI/CWlyr32M1WWwbBm+
u8i+8AajWkCK7sYU34iOB6fGnW+8Df/TUN9Q+DCGJYmQh6rSK9e8rIz983mIDVJ9
1X05KGYaHtKPEL+n++hYV6x4o9k6H+JAAa9jYQIDAQABo4IBIDCCARwwDAYDVR0T
AQH/BAIwADAdBgNVHSUEFjAUBggrBgEFBQcDAQYIKwYBBQUHAwIwDgYDVR0PAQH/
BAQDAgWgMB8GA1UdIwQYMBaAFDZChTaQujqm5C4FWaBQExPk0ttYMIGcBgNVHREE
gZQwgZGCLSouaHBlLWdvbDAxLWQ0Lm1qYy5wcmMuZXVjYWx5cHR1cy1zeXN0ZW1z
LmNvbYIraHBlLWdvbDAxLWQ0Lm1qYy5wcmMuZXVjYWx5cHR1cy1zeXN0ZW1zLmNv
bYIzY29uc29sZS1ocGUtZ29sMDEtZDQubWpjLnByYy5ldWNhbHlwdHVzLXN5c3Rl
bXMuY29tMB0GA1UdDgQWBBR2JOaX5nVdwDbCHGXoa1HoPQYEKjANBgkqhkiG9w0B
AQsFAAOCAgEAR3xmVW9HPOMgHk/tvVXS3TM4xTRd0usbPGLJcioBfmekxfpZeJn/
vsCW9YqApvxIlTiOwQz0yWy7CvwffYT4xXdQok52r1ZHVx4CBs2rEfBIWNuoNksn
mvpTuVFpugU/6VdbtXB1JJpIXV+jjZPe7rM3iOlYatXzJ76KMMhfbmHU2yCVf9J3
6oOosWrzcektFhGEo4Kpg1YKxkig/O/ggar7qhdoCoQDq8hR2SNTDxIEEUUDuqiU
ljBQ7GAuM5wTzi5V2j1jWvj7oP69LKE4PeswWgMaJ7nlR5Fb5XvKtBukn9/VlN44
eDBPn9JKcYElBOYQZdcKXGKsJnJyMs5di9WPz84h4JcgH5ygdsBwUOSYIAJsQ8P6
615UeNuus8KhBZp9BQusMzzqxDg9xsDY58Hy7paLAYGDXHWxf2Vl+pgt89VSaBoL
lyH8RSedmQ+WfJlxSGZA6zQcgcXqpxQKqPzOI1TykMzyiCqDiLf0u+efTpErUe6v
ODyzVOY5TkpgAFzqIbwIM8FxqB8i0zBCFflugxSYa7gN10oKTQ6qZCsfF1LGoUJa
lJZNRYXyjoLNzO5YeyWLBmSB+yizegAnIGvFzSDrdkERP0qM4PR5OdQi8v74z1xM
zNrl/j4Hapq+rKN2x+LO0ApcE82VuMRugBTWDF+MnqxvwyX6km63V9c=
-----END CERTIFICATE-----
