Certificate:
    Data:
        Version: 3 (0x2)
        Serial Number: 26 (0x1a)
    Signature Algorithm: sha256WithRSAEncryption
        Issuer: C=US, ST=California, L=Goleta, O=Hewlett-Packard, OU=Helion Eucalyptus Development, CN=Helion Eucalyptus Development Root Certification Authority
        Validity
            Not Before: Oct 24 22:38:34 2016 GMT
            Not After : Oct 24 22:38:34 2019 GMT
        Subject: C=US, ST=California, O=Hewlett-Packard, OU=Helion Eucalyptus Development, CN=*.hpe-gol01-d1.mjc.prc.eucalyptus-systems.com
        Subject Public Key Info:
            Public Key Algorithm: rsaEncryption
                Public-Key: (2048 bit)
                Modulus:
                    00:d6:46:c7:21:3e:0c:3f:40:47:2b:49:73:dd:bb:
                    03:70:cf:69:fa:1e:21:42:9e:b7:dd:61:f9:e8:e9:
                    c9:ea:fe:d8:e5:ec:1c:92:5f:89:de:a2:86:7f:5c:
                    a7:08:a2:0a:5c:0c:28:24:1e:2e:8e:db:85:36:94:
                    ab:b6:2b:72:3e:e8:f6:7f:d8:76:b6:3c:98:bf:8d:
                    a4:b1:b7:a7:52:34:d3:11:0f:00:d8:d9:73:2a:fe:
                    6a:39:77:5b:48:8f:96:78:06:f8:00:eb:22:4a:36:
                    78:1b:3c:61:9a:07:31:dc:97:d9:0d:e7:39:4a:1f:
                    a4:8c:c1:a1:63:66:38:02:eb:80:e3:7e:e2:48:5c:
                    8f:b7:05:65:77:85:a9:7b:59:30:fa:4a:fd:8b:e0:
                    75:81:c5:53:45:ff:7c:e8:29:d3:4f:23:2b:91:f4:
                    aa:13:47:02:a5:40:8c:b1:10:22:26:ff:8d:4c:a2:
                    66:a5:da:27:f8:6b:4c:9f:1f:3f:81:54:2b:bb:40:
                    6b:3e:d9:ff:b4:8e:75:15:53:b3:6c:21:58:5f:56:
                    b2:39:f4:fd:38:1e:88:8f:f9:72:57:6e:e8:5f:c5:
                    fb:b9:22:a4:0f:51:3f:c8:02:21:7d:c1:87:3c:c7:
                    41:bf:74:55:78:a0:ec:13:50:98:84:19:56:f8:d1:
                    b0:65
                Exponent: 65537 (0x10001)
        X509v3 extensions:
            X509v3 Basic Constraints: critical
                CA:FALSE
            X509v3 Extended Key Usage: 
                TLS Web Server Authentication, TLS Web Client Authentication
            X509v3 Key Usage: critical
                Digital Signature, Key Encipherment
            X509v3 Authority Key Identifier: 
                keyid:36:42:85:36:90:BA:3A:A6:E4:2E:05:59:A0:50:13:13:E4:D2:DB:58

            X509v3 Subject Alternative Name: 
                DNS:*.hpe-gol01-d1.mjc.prc.eucalyptus-systems.com, DNS:hpe-gol01-d1.mjc.prc.eucalyptus-systems.com, DNS:console-hpe-gol01-d1.mjc.prc.eucalyptus-systems.com
            X509v3 Subject Key Identifier: 
                E7:9B:85:D5:1A:34:F7:BC:58:0C:6C:B6:24:65:68:12:05:23:2F:1A
    Signature Algorithm: sha256WithRSAEncryption
         45:7e:d1:60:2e:a4:f6:dc:25:51:27:03:e5:5a:cd:dc:2a:e4:
         bc:48:18:c4:ee:99:c6:fb:7b:a2:9f:76:7b:25:c2:15:a9:44:
         4d:3b:09:bb:06:37:81:71:67:24:6a:78:86:7c:7b:99:c3:9f:
         fa:90:20:ab:53:4b:d4:f6:89:aa:37:6f:70:9f:e1:37:ed:68:
         f3:4c:a4:9a:36:a6:37:05:5b:63:38:c5:ee:d6:ca:a8:6c:fb:
         56:d9:90:88:b3:50:52:05:51:31:0b:a4:4b:c8:08:51:42:01:
         93:c8:38:b9:0d:31:d9:04:f0:62:e8:cd:74:9b:64:3c:8a:c3:
         de:6f:80:e2:92:d9:a2:a3:36:92:15:01:4c:7b:6a:64:f9:66:
         bc:b3:d6:3e:fe:16:a3:d1:1e:09:c4:d7:3e:11:60:37:d9:43:
         0c:ec:b6:0a:fb:2b:2c:2f:a5:e0:59:fc:65:2c:21:63:cd:6e:
         f9:0d:d2:7d:de:f1:ee:4e:51:a7:42:df:d5:c4:f1:ed:a8:b2:
         18:ae:77:a6:c6:5f:44:07:a9:4c:38:9d:51:7c:41:d8:de:eb:
         84:80:f8:18:e4:02:7b:90:7c:f7:4b:b0:a5:bb:86:78:7e:13:
         95:bd:9f:e5:dc:03:d3:c4:b3:4e:83:3a:3b:d5:27:a9:2b:bc:
         09:37:fb:9b:42:9a:62:85:a9:ed:e6:6e:99:9a:93:ec:81:0c:
         3a:9d:ed:6f:35:07:d7:e7:68:58:03:ca:18:9f:c2:67:fd:ac:
         35:5d:e3:97:8d:52:ad:fe:72:6b:a7:91:43:93:4c:53:04:95:
         54:e3:a5:18:7b:1c:c9:e8:ba:6b:a0:6d:e8:63:04:27:14:0a:
         26:b5:99:af:71:20:d3:68:9c:1a:3a:a4:ab:93:30:6a:fe:e9:
         36:09:03:24:0f:da:e7:58:c6:f3:28:0b:b7:4c:3e:3f:19:e1:
         0a:a7:38:5c:b2:83:96:09:df:23:e9:fe:b1:dc:2e:d3:de:9f:
         a1:b2:d3:48:3c:bc:3d:83:29:34:c9:ee:cd:26:e0:b3:83:e2:
         57:b7:e1:fc:e9:91:dc:be:83:d2:e9:c9:75:8c:53:5f:dd:c1:
         a6:bf:ff:34:2d:ec:5d:37:2a:48:46:8e:04:1b:e7:d7:d6:ce:
         1c:27:11:8e:df:f5:a4:0b:84:d6:f0:bf:03:fd:b8:85:dd:e0:
         c2:ab:dc:94:11:9a:fb:47:ee:ec:3d:7f:c2:f8:d9:56:99:4d:
         ac:9c:83:63:73:0d:9b:04:42:90:5f:8c:7b:eb:bc:40:11:a2:
         e4:39:68:7e:ff:e2:5e:48:2e:66:4c:de:d6:f3:70:8b:39:5c:
         a5:a9:1c:59:21:dc:c7:00
-----BEGIN CERTIFICATE-----
MIIF9TCCA92gAwIBAgIBGjANBgkqhkiG9w0BAQsFADCBujELMAkGA1UEBhMCVVMx
EzARBgNVBAgMCkNhbGlmb3JuaWExDzANBgNVBAcMBkdvbGV0YTEYMBYGA1UECgwP
SGV3bGV0dC1QYWNrYXJkMSYwJAYDVQQLDB1IZWxpb24gRXVjYWx5cHR1cyBEZXZl
bG9wbWVudDFDMEEGA1UEAww6SGVsaW9uIEV1Y2FseXB0dXMgRGV2ZWxvcG1lbnQg
Um9vdCBDZXJ0aWZpY2F0aW9uIEF1dGhvcml0eTAeFw0xNjEwMjQyMjM4MzRaFw0x
OTEwMjQyMjM4MzRaMIGcMQswCQYDVQQGEwJVUzETMBEGA1UECAwKQ2FsaWZvcm5p
YTEYMBYGA1UECgwPSGV3bGV0dC1QYWNrYXJkMSYwJAYDVQQLDB1IZWxpb24gRXVj
YWx5cHR1cyBEZXZlbG9wbWVudDE2MDQGA1UEAwwtKi5ocGUtZ29sMDEtZDEubWpj
LnByYy5ldWNhbHlwdHVzLXN5c3RlbXMuY29tMIIBIjANBgkqhkiG9w0BAQEFAAOC
AQ8AMIIBCgKCAQEA1kbHIT4MP0BHK0lz3bsDcM9p+h4hQp633WH56OnJ6v7Y5ewc
kl+J3qKGf1ynCKIKXAwoJB4ujtuFNpSrtityPuj2f9h2tjyYv42ksbenUjTTEQ8A
2NlzKv5qOXdbSI+WeAb4AOsiSjZ4Gzxhmgcx3JfZDec5Sh+kjMGhY2Y4AuuA437i
SFyPtwVld4Wpe1kw+kr9i+B1gcVTRf986CnTTyMrkfSqE0cCpUCMsRAiJv+NTKJm
pdon+GtMnx8/gVQru0BrPtn/tI51FVOzbCFYX1ayOfT9OB6Ij/lyV27oX8X7uSKk
D1E/yAIhfcGHPMdBv3RVeKDsE1CYhBlW+NGwZQIDAQABo4IBIDCCARwwDAYDVR0T
AQH/BAIwADAdBgNVHSUEFjAUBggrBgEFBQcDAQYIKwYBBQUHAwIwDgYDVR0PAQH/
BAQDAgWgMB8GA1UdIwQYMBaAFDZChTaQujqm5C4FWaBQExPk0ttYMIGcBgNVHREE
gZQwgZGCLSouaHBlLWdvbDAxLWQxLm1qYy5wcmMuZXVjYWx5cHR1cy1zeXN0ZW1z
LmNvbYIraHBlLWdvbDAxLWQxLm1qYy5wcmMuZXVjYWx5cHR1cy1zeXN0ZW1zLmNv
bYIzY29uc29sZS1ocGUtZ29sMDEtZDEubWpjLnByYy5ldWNhbHlwdHVzLXN5c3Rl
bXMuY29tMB0GA1UdDgQWBBTnm4XVGjT3vFgMbLYkZWgSBSMvGjANBgkqhkiG9w0B
AQsFAAOCAgEARX7RYC6k9twlUScD5VrN3CrkvEgYxO6Zxvt7op92eyXCFalETTsJ
uwY3gXFnJGp4hnx7mcOf+pAgq1NL1PaJqjdvcJ/hN+1o80ykmjamNwVbYzjF7tbK
qGz7VtmQiLNQUgVRMQukS8gIUUIBk8g4uQ0x2QTwYujNdJtkPIrD3m+A4pLZoqM2
khUBTHtqZPlmvLPWPv4Wo9EeCcTXPhFgN9lDDOy2CvsrLC+l4Fn8ZSwhY81u+Q3S
fd7x7k5Rp0Lf1cTx7aiyGK53psZfRAepTDidUXxB2N7rhID4GOQCe5B890uwpbuG
eH4Tlb2f5dwD08SzToM6O9UnqSu8CTf7m0KaYoWp7eZumZqT7IEMOp3tbzUH1+do
WAPKGJ/CZ/2sNV3jl41Srf5ya6eRQ5NMUwSVVOOlGHscyei6a6Bt6GMEJxQKJrWZ
r3Eg02icGjqkq5Mwav7pNgkDJA/a51jG8ygLt0w+PxnhCqc4XLKDlgnfI+n+sdwu
096fobLTSDy8PYMpNMnuzSbgs4PiV7fh/OmR3L6D0unJdYxTX93Bpr//NC3sXTcq
SEaOBBvn19bOHCcRjt/1pAuE1vC/A/24hd3gwqvclBGa+0fu7D1/wvjZVplNrJyD
Y3MNmwRCkF+Me+u8QBGi5Dlofv/iXkguZkze1vNwizlcpakcWSHcxwA=
-----END CERTIFICATE-----
