Certificate:
    Data:
        Version: 3 (0x2)
        Serial Number: 11 (0xb)
    Signature Algorithm: sha256WithRSAEncryption
        Issuer: C=US, ST=California, L=Goleta, O=Hewlett-Packard, OU=Helion Eucalyptus Development, CN=Helion Eucalyptus Development Root Certification Authority
        Validity
            Not Before: Apr 21 05:13:14 2015 GMT
            Not After : Apr 20 05:13:14 2018 GMT
        Subject: C=US, ST=California, O=Hewlett-Packard, OU=Helion Eucalyptus Development, CN=*.hp-gol01-d3.mjc.prc.eucalyptus-systems.com
        Subject Public Key Info:
            Public Key Algorithm: rsaEncryption
                Public-Key: (2048 bit)
                Modulus:
                    00:ae:ba:4f:01:8e:f8:2d:05:a4:c9:32:1d:88:ad:
                    79:dc:2e:8c:ed:43:d9:1b:68:25:c7:c1:1f:99:bf:
                    1f:8d:d0:d2:12:94:99:9d:d9:64:1d:50:c5:40:22:
                    a9:20:35:e2:20:3b:95:cd:50:8b:96:02:0c:d5:b9:
                    11:d0:bb:0f:04:30:20:28:00:88:76:4f:d7:9c:ff:
                    3e:a0:a9:7e:a6:09:95:4a:cc:09:bd:f8:f3:7a:b7:
                    8d:12:45:95:72:8f:8a:d0:c5:5e:85:08:7a:b2:8e:
                    b4:6e:81:66:a8:6a:d6:94:09:b9:6c:2f:60:62:47:
                    b5:95:a5:87:d1:78:4a:b2:dd:08:31:72:b7:24:ca:
                    de:bf:b6:32:e0:08:da:0b:7c:94:ad:cc:e5:69:51:
                    77:50:e4:5e:9f:3c:23:14:8f:1d:7e:a8:0c:fe:da:
                    1a:10:54:33:87:29:fa:26:97:14:4b:e5:18:14:ad:
                    a5:48:cf:1a:cd:6e:04:09:da:54:c5:33:e1:ca:19:
                    e3:2f:05:49:a3:07:f6:6f:45:38:63:39:7a:a7:4d:
                    c1:39:14:5f:87:65:d8:62:0c:64:2e:fa:67:16:2d:
                    21:62:b7:7b:c3:10:bb:17:ef:21:df:95:a2:50:4c:
                    a4:2b:e3:ea:fd:e8:14:5d:59:05:a1:3d:5b:15:42:
                    2e:ad
                Exponent: 65537 (0x10001)
        X509v3 extensions:
            X509v3 Basic Constraints: critical
                CA:FALSE
            X509v3 Extended Key Usage: 
                TLS Web Server Authentication, TLS Web Client Authentication
            X509v3 Key Usage: critical
                Digital Signature, Key Encipherment
            X509v3 Authority Key Identifier: 
                keyid:36:42:85:36:90:BA:3A:A6:E4:2E:05:59:A0:50:13:13:E4:D2:DB:58

            X509v3 Subject Alternative Name: 
                DNS:*.hp-gol01-d3.mjc.prc.eucalyptus-systems.com, DNS:hp-gol01-d3.mjc.prc.eucalyptus-systems.com
            X509v3 Subject Key Identifier: 
                3B:85:98:21:2C:63:29:F4:3F:CB:FE:2F:B0:16:F0:38:32:82:6F:A5
    Signature Algorithm: sha256WithRSAEncryption
         34:13:f1:8b:74:43:64:3b:33:01:85:8a:aa:34:7e:0c:34:5f:
         ed:53:c3:df:69:e8:d1:df:59:e6:9e:bd:bf:d5:cf:3c:4b:18:
         77:b6:bc:e2:32:f2:13:59:f6:fb:5b:b5:35:28:80:71:88:2b:
         01:f7:e4:cc:b8:80:57:68:03:58:b3:f5:34:08:a9:16:79:ad:
         4f:bd:26:70:b0:0e:f6:91:6e:34:bf:26:8c:6f:4a:c9:e6:08:
         05:51:25:f9:de:76:e3:f9:d9:0a:90:ad:88:eb:66:5c:61:42:
         67:5f:c1:ea:6c:b5:c6:b6:4d:c4:69:ad:6d:d6:f4:76:b2:6f:
         8e:47:d1:60:46:6b:90:cc:3b:81:a4:b9:3a:3b:46:3b:a0:f7:
         5f:18:d4:c4:2c:6e:0b:a2:5f:40:e0:39:93:48:1b:d1:7b:c2:
         e9:67:c5:0b:01:01:23:14:11:59:2d:71:69:7f:48:03:91:ba:
         95:22:a5:e3:83:ac:3e:56:47:a9:d3:10:8f:02:8f:a7:24:e9:
         56:a0:a5:63:0d:ac:c9:bf:1c:60:7d:83:9c:26:91:09:3b:ba:
         af:61:69:09:78:d1:0a:16:45:2f:35:4a:5f:21:f5:d9:45:ae:
         33:b5:cb:f9:84:4c:bb:2b:34:77:9e:37:8c:fc:39:57:c2:e3:
         29:6f:53:7a:88:e5:dc:d4:bd:01:04:54:13:e0:4e:39:b8:66:
         6a:ec:3a:4e:93:a2:82:21:7d:ad:51:97:10:2b:5f:46:11:0d:
         29:01:28:36:bf:06:03:c9:40:a5:6c:80:7b:8e:a1:b4:83:cb:
         30:6a:0b:f9:16:91:97:5f:04:e7:4f:f9:60:7f:78:96:12:07:
         a4:45:76:be:8e:14:c0:eb:2d:a2:96:91:9d:72:ee:11:c2:de:
         ad:ef:3d:b0:b7:0b:02:7e:5c:2d:ee:c8:9f:98:36:1a:89:43:
         e1:bc:96:f9:e5:8f:5d:64:88:ae:a4:a7:11:9e:a5:26:a5:8f:
         36:a3:ce:6f:02:86:e1:c6:0a:2b:38:68:3f:c4:48:39:f5:6c:
         67:d3:9a:41:da:2f:0c:35:b7:85:e5:93:70:80:fe:88:db:c5:
         17:44:0f:9c:f1:53:52:c5:dc:6f:7a:64:db:87:05:68:84:83:
         b7:cc:4f:25:bf:94:69:13:c4:a3:e7:50:39:05:91:67:e3:09:
         4b:a3:bd:18:53:3b:5f:26:c6:8b:55:33:19:bd:b3:f1:8e:f5:
         63:8a:dc:4a:b8:04:17:dd:5f:65:09:1d:e3:c6:b6:6b:2c:ef:
         ab:5d:17:0b:3d:80:5c:10:47:9e:10:c3:a9:f1:c8:4f:cb:7e:
         6a:92:4f:45:cd:2a:fc:18
-----BEGIN CERTIFICATE-----
MIIFuDCCA6CgAwIBAgIBCzANBgkqhkiG9w0BAQsFADCBujELMAkGA1UEBhMCVVMx
EzARBgNVBAgMCkNhbGlmb3JuaWExDzANBgNVBAcMBkdvbGV0YTEYMBYGA1UECgwP
SGV3bGV0dC1QYWNrYXJkMSYwJAYDVQQLDB1IZWxpb24gRXVjYWx5cHR1cyBEZXZl
bG9wbWVudDFDMEEGA1UEAww6SGVsaW9uIEV1Y2FseXB0dXMgRGV2ZWxvcG1lbnQg
Um9vdCBDZXJ0aWZpY2F0aW9uIEF1dGhvcml0eTAeFw0xNTA0MjEwNTEzMTRaFw0x
ODA0MjAwNTEzMTRaMIGbMQswCQYDVQQGEwJVUzETMBEGA1UECAwKQ2FsaWZvcm5p
YTEYMBYGA1UECgwPSGV3bGV0dC1QYWNrYXJkMSYwJAYDVQQLDB1IZWxpb24gRXVj
YWx5cHR1cyBEZXZlbG9wbWVudDE1MDMGA1UEAwwsKi5ocC1nb2wwMS1kMy5tamMu
cHJjLmV1Y2FseXB0dXMtc3lzdGVtcy5jb20wggEiMA0GCSqGSIb3DQEBAQUAA4IB
DwAwggEKAoIBAQCuuk8BjvgtBaTJMh2IrXncLoztQ9kbaCXHwR+Zvx+N0NISlJmd
2WQdUMVAIqkgNeIgO5XNUIuWAgzVuRHQuw8EMCAoAIh2T9ec/z6gqX6mCZVKzAm9
+PN6t40SRZVyj4rQxV6FCHqyjrRugWaoataUCblsL2BiR7WVpYfReEqy3Qgxcrck
yt6/tjLgCNoLfJStzOVpUXdQ5F6fPCMUjx1+qAz+2hoQVDOHKfomlxRL5RgUraVI
zxrNbgQJ2lTFM+HKGeMvBUmjB/ZvRThjOXqnTcE5FF+HZdhiDGQu+mcWLSFit3vD
ELsX7yHflaJQTKQr4+r96BRdWQWhPVsVQi6tAgMBAAGjgeUwgeIwDAYDVR0TAQH/
BAIwADAdBgNVHSUEFjAUBggrBgEFBQcDAQYIKwYBBQUHAwIwDgYDVR0PAQH/BAQD
AgWgMB8GA1UdIwQYMBaAFDZChTaQujqm5C4FWaBQExPk0ttYMGMGA1UdEQRcMFqC
LCouaHAtZ29sMDEtZDMubWpjLnByYy5ldWNhbHlwdHVzLXN5c3RlbXMuY29tgipo
cC1nb2wwMS1kMy5tamMucHJjLmV1Y2FseXB0dXMtc3lzdGVtcy5jb20wHQYDVR0O
BBYEFDuFmCEsYyn0P8v+L7AW8Dgygm+lMA0GCSqGSIb3DQEBCwUAA4ICAQA0E/GL
dENkOzMBhYqqNH4MNF/tU8PfaejR31nmnr2/1c88Sxh3trziMvITWfb7W7U1KIBx
iCsB9+TMuIBXaANYs/U0CKkWea1PvSZwsA72kW40vyaMb0rJ5ggFUSX53nbj+dkK
kK2I62ZcYUJnX8HqbLXGtk3Eaa1t1vR2sm+OR9FgRmuQzDuBpLk6O0Y7oPdfGNTE
LG4Lol9A4DmTSBvRe8LpZ8ULAQEjFBFZLXFpf0gDkbqVIqXjg6w+Vkep0xCPAo+n
JOlWoKVjDazJvxxgfYOcJpEJO7qvYWkJeNEKFkUvNUpfIfXZRa4ztcv5hEy7KzR3
njeM/DlXwuMpb1N6iOXc1L0BBFQT4E45uGZq7DpOk6KCIX2tUZcQK19GEQ0pASg2
vwYDyUClbIB7jqG0g8swagv5FpGXXwTnT/lgf3iWEgekRXa+jhTA6y2ilpGdcu4R
wt6t7z2wtwsCflwt7sifmDYaiUPhvJb55Y9dZIiupKcRnqUmpY82o85vAobhxgor
OGg/xEg59Wxn05pB2i8MNbeF5ZNwgP6I28UXRA+c8VNSxdxvemTbhwVohIO3zE8l
v5RpE8Sj51A5BZFn4wlLo70YUztfJsaLVTMZvbPxjvVjitxKuAQX3V9lCR3jxrZr
LO+rXRcLPYBcEEeeEMOp8chPy35qkk9FzSr8GA==
-----END CERTIFICATE-----
