Certificate:
    Data:
        Version: 3 (0x2)
        Serial Number: 34 (0x22)
    Signature Algorithm: sha256WithRSAEncryption
        Issuer: C=US, ST=California, L=Goleta, O=Hewlett-Packard, OU=Helion Eucalyptus Development, CN=Helion Eucalyptus Development Root Certification Authority
        Validity
            Not Before: Dec  8 00:27:35 2016 GMT
            Not After : Dec  8 00:27:35 2019 GMT
        Subject: C=US, ST=California, O=Hewlett-Packard, OU=Helion Eucalyptus Development, CN=*.hpe-gol01-t1.mjc.prc.eucalyptus-systems.com
        Subject Public Key Info:
            Public Key Algorithm: rsaEncryption
                Public-Key: (2048 bit)
                Modulus:
                    00:a0:d2:a9:eb:68:ea:2a:9c:26:3e:07:08:c3:4f:
                    08:29:b9:a4:51:ba:8a:43:e3:e7:3d:c4:c1:e6:02:
                    e3:82:fa:1f:dc:38:bf:9f:c6:17:98:51:39:24:74:
                    74:9b:48:42:78:fc:52:b9:fb:c8:75:98:01:00:0f:
                    48:d7:74:61:42:97:04:29:6c:d6:df:0a:93:2c:3c:
                    17:6e:3a:44:45:84:68:ac:a2:b1:10:b2:83:66:5c:
                    14:36:6d:5c:f9:61:09:db:05:32:8c:e8:36:48:3a:
                    3f:0b:db:13:39:f4:53:8e:1e:dc:2d:4a:14:da:47:
                    ed:3f:cd:7a:5f:60:a8:41:c1:bb:0d:11:90:1c:f4:
                    13:29:d4:75:7d:5a:b1:42:b6:70:f1:20:26:72:69:
                    c7:e0:c1:8a:1b:74:bb:b5:95:d4:ac:26:ff:f6:cc:
                    0e:4f:c6:1b:61:8d:2e:2b:a4:7a:dc:2b:84:4f:4a:
                    7d:f5:2e:71:ae:de:8d:ea:00:ec:cd:0b:92:d2:9c:
                    ac:8b:30:ac:b5:82:2b:8e:db:d6:04:b0:d8:b4:24:
                    0d:e9:da:2c:d0:e2:a8:f1:c2:87:ab:0f:42:ac:79:
                    ad:79:30:9e:13:4f:d0:93:e2:48:fe:f8:54:77:c2:
                    55:90:db:d5:06:eb:17:4a:6e:9f:18:7d:0b:93:28:
                    ba:d3
                Exponent: 65537 (0x10001)
        X509v3 extensions:
            X509v3 Basic Constraints: critical
                CA:FALSE
            X509v3 Extended Key Usage: 
                TLS Web Server Authentication, TLS Web Client Authentication
            X509v3 Key Usage: critical
                Digital Signature, Key Encipherment
            X509v3 Authority Key Identifier: 
                keyid:36:42:85:36:90:BA:3A:A6:E4:2E:05:59:A0:50:13:13:E4:D2:DB:58

            X509v3 Subject Alternative Name: 
                DNS:*.hpe-gol01-t1.mjc.prc.eucalyptus-systems.com, DNS:hpe-gol01-t1.mjc.prc.eucalyptus-systems.com, DNS:console-hpe-gol01-t1.mjc.prc.eucalyptus-systems.com
            X509v3 Subject Key Identifier: 
                C0:A1:0D:3A:8C:A3:D0:22:00:24:FF:07:96:D8:59:5B:E9:26:2A:2F
    Signature Algorithm: sha256WithRSAEncryption
         6a:c5:99:71:bf:56:28:c6:7e:2e:49:07:47:61:a7:26:88:65:
         51:4f:5e:4e:1e:a2:4e:16:c4:40:f8:32:0c:b4:8e:1e:b8:a6:
         09:78:1e:96:d8:02:54:4b:8a:7a:38:72:08:f9:51:d7:2c:61:
         d8:a7:c7:2b:63:34:44:a6:b2:2f:b2:fd:c7:a6:56:5a:a6:55:
         59:86:04:77:a6:5a:7d:10:1d:d4:60:ed:78:7f:42:02:46:d8:
         ea:04:cd:99:36:ce:b2:6b:a2:31:64:ed:98:2c:c8:92:f1:90:
         d2:62:fd:40:b2:f0:b1:d2:1f:44:31:ae:38:7e:1a:9a:3c:fb:
         2b:7f:c8:fd:46:e2:2f:51:c0:fb:b5:0d:38:e6:44:c5:86:86:
         63:ef:51:f8:ec:d6:6c:25:bc:56:1f:cf:28:d9:e0:4c:4d:0a:
         03:46:65:7f:e5:81:12:5b:f2:0e:83:dc:8f:28:ff:0e:78:37:
         69:2e:08:44:b3:77:5e:33:cc:2b:46:d5:ad:3e:34:23:fa:11:
         6e:83:41:99:e6:df:d8:a2:d6:23:d5:05:74:11:85:f3:b1:66:
         3e:bf:32:c4:bf:df:f7:0e:53:1b:98:e5:58:4f:4f:68:79:9f:
         e4:34:a9:bc:93:6c:2c:39:4b:60:e7:82:46:5a:ef:52:cb:17:
         f3:85:3f:e5:13:ea:ab:5f:ec:ae:6a:7d:ec:82:49:4c:99:b2:
         8c:e6:a8:1c:b5:f3:78:3f:18:23:0b:99:84:02:b0:b7:12:69:
         47:47:0e:20:22:96:f8:b2:c3:66:1f:72:23:7a:f4:99:80:51:
         74:bf:d6:bc:9c:39:0b:2b:a8:1e:e1:f6:7b:75:56:22:45:da:
         67:86:46:83:a9:ab:26:21:00:37:63:59:2f:d9:05:7c:45:01:
         27:88:12:27:93:6b:36:55:08:16:d5:2a:39:8c:4c:e1:b2:dc:
         97:0c:2a:a4:19:82:f5:e0:2a:70:ed:45:64:70:9a:8b:97:78:
         bf:fc:1e:17:df:71:e7:20:f2:bd:60:5c:e4:1c:d4:a0:7a:13:
         d4:be:97:f9:bd:34:74:ba:78:4a:cd:86:f0:1b:3c:86:4e:7f:
         35:49:61:d4:c8:17:d4:dc:cd:ef:3e:07:61:48:02:ae:b7:c6:
         27:13:1b:af:46:2e:03:c4:70:7f:ae:e8:e1:8b:81:7c:10:f4:
         cd:aa:f2:c4:6e:13:a5:f9:b1:60:52:8a:c3:66:63:91:84:1b:
         b6:1b:8e:12:56:3d:00:7f:98:80:71:8f:ba:73:7d:68:17:68:
         95:87:88:33:a2:f5:28:82:15:66:3b:e0:57:5a:e9:c4:c4:3d:
         f7:17:2f:c3:d6:b9:56:4e
-----BEGIN CERTIFICATE-----
MIIF9TCCA92gAwIBAgIBIjANBgkqhkiG9w0BAQsFADCBujELMAkGA1UEBhMCVVMx
EzARBgNVBAgMCkNhbGlmb3JuaWExDzANBgNVBAcMBkdvbGV0YTEYMBYGA1UECgwP
SGV3bGV0dC1QYWNrYXJkMSYwJAYDVQQLDB1IZWxpb24gRXVjYWx5cHR1cyBEZXZl
bG9wbWVudDFDMEEGA1UEAww6SGVsaW9uIEV1Y2FseXB0dXMgRGV2ZWxvcG1lbnQg
Um9vdCBDZXJ0aWZpY2F0aW9uIEF1dGhvcml0eTAeFw0xNjEyMDgwMDI3MzVaFw0x
OTEyMDgwMDI3MzVaMIGcMQswCQYDVQQGEwJVUzETMBEGA1UECAwKQ2FsaWZvcm5p
YTEYMBYGA1UECgwPSGV3bGV0dC1QYWNrYXJkMSYwJAYDVQQLDB1IZWxpb24gRXVj
YWx5cHR1cyBEZXZlbG9wbWVudDE2MDQGA1UEAwwtKi5ocGUtZ29sMDEtdDEubWpj
LnByYy5ldWNhbHlwdHVzLXN5c3RlbXMuY29tMIIBIjANBgkqhkiG9w0BAQEFAAOC
AQ8AMIIBCgKCAQEAoNKp62jqKpwmPgcIw08IKbmkUbqKQ+PnPcTB5gLjgvof3Di/
n8YXmFE5JHR0m0hCePxSufvIdZgBAA9I13RhQpcEKWzW3wqTLDwXbjpERYRorKKx
ELKDZlwUNm1c+WEJ2wUyjOg2SDo/C9sTOfRTjh7cLUoU2kftP816X2CoQcG7DRGQ
HPQTKdR1fVqxQrZw8SAmcmnH4MGKG3S7tZXUrCb/9swOT8YbYY0uK6R63CuET0p9
9S5xrt6N6gDszQuS0pysizCstYIrjtvWBLDYtCQN6dos0OKo8cKHqw9CrHmteTCe
E0/Qk+JI/vhUd8JVkNvVBusXSm6fGH0Lkyi60wIDAQABo4IBIDCCARwwDAYDVR0T
AQH/BAIwADAdBgNVHSUEFjAUBggrBgEFBQcDAQYIKwYBBQUHAwIwDgYDVR0PAQH/
BAQDAgWgMB8GA1UdIwQYMBaAFDZChTaQujqm5C4FWaBQExPk0ttYMIGcBgNVHREE
gZQwgZGCLSouaHBlLWdvbDAxLXQxLm1qYy5wcmMuZXVjYWx5cHR1cy1zeXN0ZW1z
LmNvbYIraHBlLWdvbDAxLXQxLm1qYy5wcmMuZXVjYWx5cHR1cy1zeXN0ZW1zLmNv
bYIzY29uc29sZS1ocGUtZ29sMDEtdDEubWpjLnByYy5ldWNhbHlwdHVzLXN5c3Rl
bXMuY29tMB0GA1UdDgQWBBTAoQ06jKPQIgAk/weW2Flb6SYqLzANBgkqhkiG9w0B
AQsFAAOCAgEAasWZcb9WKMZ+LkkHR2GnJohlUU9eTh6iThbEQPgyDLSOHrimCXge
ltgCVEuKejhyCPlR1yxh2KfHK2M0RKayL7L9x6ZWWqZVWYYEd6ZafRAd1GDteH9C
AkbY6gTNmTbOsmuiMWTtmCzIkvGQ0mL9QLLwsdIfRDGuOH4amjz7K3/I/UbiL1HA
+7UNOOZExYaGY+9R+OzWbCW8Vh/PKNngTE0KA0Zlf+WBElvyDoPcjyj/Dng3aS4I
RLN3XjPMK0bVrT40I/oRboNBmebf2KLWI9UFdBGF87FmPr8yxL/f9w5TG5jlWE9P
aHmf5DSpvJNsLDlLYOeCRlrvUssX84U/5RPqq1/srmp97IJJTJmyjOaoHLXzeD8Y
IwuZhAKwtxJpR0cOICKW+LLDZh9yI3r0mYBRdL/WvJw5CyuoHuH2e3VWIkXaZ4ZG
g6mrJiEAN2NZL9kFfEUBJ4gSJ5NrNlUIFtUqOYxM4bLclwwqpBmC9eAqcO1FZHCa
i5d4v/weF99x5yDyvWBc5BzUoHoT1L6X+b00dLp4Ss2G8Bs8hk5/NUlh1MgX1NzN
7z4HYUgCrrfGJxMbr0YuA8Rwf67o4YuBfBD0zaryxG4TpfmxYFKKw2ZjkYQbthuO
ElY9AH+YgHGPunN9aBdolYeIM6L1KIIVZjvgV1rpxMQ99xcvw9a5Vk4=
-----END CERTIFICATE-----
