Certificate:
    Data:
        Version: 3 (0x2)
        Serial Number: 22 (0x16)
    Signature Algorithm: sha256WithRSAEncryption
        Issuer: C=US, ST=California, L=Goleta, O=Hewlett-Packard, OU=Helion Eucalyptus Development, CN=Helion Eucalyptus Development Root Certification Authority
        Validity
            Not Before: Oct 24 22:18:34 2016 GMT
            Not After : Oct 24 22:18:34 2019 GMT
        Subject: C=US, ST=California, O=Hewlett-Packard, OU=Helion Eucalyptus Development, CN=*.hpe-gol01-f3.mjc.prc.eucalyptus-systems.com
        Subject Public Key Info:
            Public Key Algorithm: rsaEncryption
                Public-Key: (2048 bit)
                Modulus:
                    00:bb:2a:db:d1:6d:52:be:f9:aa:ec:e2:0f:26:1e:
                    b6:1b:82:79:92:e6:8b:b1:22:be:de:75:4b:ed:28:
                    21:73:ec:f8:00:a2:5b:64:a7:c0:df:6a:5e:85:68:
                    35:fc:6f:11:08:f4:05:09:67:d9:50:19:ad:32:01:
                    d4:0e:3e:5d:a9:e9:fd:42:ba:c7:09:07:ab:9a:77:
                    a0:c8:9e:56:ea:28:ff:22:07:d4:1a:0b:3e:84:7c:
                    9d:fb:4f:74:3f:68:65:27:18:68:a6:83:4a:49:78:
                    b8:62:24:71:58:d7:fd:f2:50:69:52:d7:97:e5:55:
                    c8:bf:55:47:9d:9c:37:f9:22:a7:67:ad:cd:c7:0f:
                    07:a0:6c:67:a6:b9:57:8a:18:9f:49:7d:aa:68:ec:
                    de:13:3a:f1:45:9f:08:00:71:f8:74:51:e7:1d:e6:
                    a2:e3:c3:ee:94:f7:1f:93:fd:74:5f:a4:43:87:b1:
                    07:24:c6:7a:78:22:40:54:dd:14:a4:51:16:aa:2f:
                    df:bd:ad:30:71:e5:7e:39:40:9a:13:dc:36:94:50:
                    70:d0:7b:6e:46:91:97:d6:8f:fc:f7:3f:ff:d5:1f:
                    3b:3b:0a:38:4b:23:7d:94:78:21:5a:c5:4e:76:d6:
                    6b:55:0c:7d:e5:11:b1:e3:5a:57:8e:97:32:81:9d:
                    ff:1d
                Exponent: 65537 (0x10001)
        X509v3 extensions:
            X509v3 Basic Constraints: critical
                CA:FALSE
            X509v3 Extended Key Usage: 
                TLS Web Server Authentication, TLS Web Client Authentication
            X509v3 Key Usage: critical
                Digital Signature, Key Encipherment
            X509v3 Authority Key Identifier: 
                keyid:36:42:85:36:90:BA:3A:A6:E4:2E:05:59:A0:50:13:13:E4:D2:DB:58

            X509v3 Subject Alternative Name: 
                DNS:*.hpe-gol01-f3.mjc.prc.eucalyptus-systems.com, DNS:hpe-gol01-f3.mjc.prc.eucalyptus-systems.com, DNS:console-hpe-gol01-f3.mjc.prc.eucalyptus-systems.com
            X509v3 Subject Key Identifier: 
                37:19:78:91:DA:1B:1E:AE:52:2F:5B:4B:B8:BC:A0:D9:8A:F2:A7:E1
    Signature Algorithm: sha256WithRSAEncryption
         7a:4c:62:bf:7d:30:b4:19:b6:0b:81:e0:6e:7b:15:a3:09:5c:
         2e:a6:4c:07:a8:b0:59:13:76:48:12:6e:7d:f7:4c:b8:b7:75:
         f2:c2:37:be:cb:aa:bf:bc:ce:df:e7:26:bc:5a:98:69:9e:2f:
         a2:6b:a5:07:3f:b5:01:07:6d:08:e8:45:1c:d2:0a:0b:ff:fe:
         8e:d2:d9:0f:5c:c2:08:f2:48:8a:95:8a:52:6b:7b:60:33:5e:
         99:69:69:36:fa:42:d6:62:d5:81:8a:e0:da:a1:d4:7f:a8:b7:
         52:c3:1c:5b:6f:db:95:2b:93:e0:eb:92:31:ec:2a:33:e7:96:
         06:57:28:09:7a:9b:60:a0:ff:12:5c:c1:f1:5d:81:44:69:8a:
         c3:3c:36:f1:ce:8b:32:6e:d9:f2:33:75:e8:9e:93:80:8b:25:
         7d:aa:d8:6b:7b:e3:6b:e7:ce:ca:fc:d1:76:a4:5c:e6:7f:ad:
         fd:61:4f:c8:f7:17:ff:87:a2:39:b7:88:30:c4:b8:d6:b1:b5:
         e1:17:30:e0:6c:b0:6f:3c:40:74:5b:51:c1:e9:91:75:9a:7f:
         1d:66:5a:ff:87:c0:e9:74:a3:08:6a:1c:5b:d2:75:cf:29:32:
         65:02:d1:27:d6:2b:a1:b9:32:41:e5:83:d7:d2:86:8e:f3:1c:
         b0:97:5e:47:f7:94:b9:80:71:cd:40:0c:46:39:28:5c:3b:13:
         77:66:bd:ea:c7:03:65:64:d6:b7:2c:37:15:c7:c5:70:2d:a0:
         4c:cd:1b:a1:e3:15:50:68:c0:50:75:e2:3d:09:48:63:0b:aa:
         11:fa:9d:14:cc:b0:aa:ca:63:a1:d3:2e:3f:4e:47:14:77:3d:
         be:cc:d4:4b:b5:f9:c2:c6:d9:fc:87:18:5a:3f:15:42:68:38:
         6e:5b:73:5c:b5:2f:f0:91:7c:a0:ba:5c:60:bf:43:00:e8:ee:
         96:93:3d:11:e9:b0:1e:8c:7d:f0:c6:37:29:8d:5e:bd:a3:03:
         50:fb:8a:c5:6e:71:89:a4:20:58:e5:76:f2:5e:df:c2:b9:4e:
         27:b9:1c:23:b2:1e:21:c5:8a:1c:d8:c6:18:33:82:6c:7c:b9:
         53:64:08:f1:85:21:f6:21:e4:bf:f0:95:f3:27:41:6b:2d:66:
         79:87:5d:2d:4d:48:d7:ae:48:2a:d1:42:df:39:1b:dc:58:5b:
         67:f4:bd:21:5b:f3:ea:f5:49:d1:80:19:5b:04:b3:83:8f:a2:
         cd:51:62:14:97:0a:4f:b0:94:0e:19:6a:03:64:6d:f7:35:34:
         d9:f4:97:51:73:4c:b5:8a:a1:93:8c:41:6b:96:0e:35:30:0d:
         ea:ee:7b:41:01:42:6b:e2
-----BEGIN CERTIFICATE-----
MIIF9TCCA92gAwIBAgIBFjANBgkqhkiG9w0BAQsFADCBujELMAkGA1UEBhMCVVMx
EzARBgNVBAgMCkNhbGlmb3JuaWExDzANBgNVBAcMBkdvbGV0YTEYMBYGA1UECgwP
SGV3bGV0dC1QYWNrYXJkMSYwJAYDVQQLDB1IZWxpb24gRXVjYWx5cHR1cyBEZXZl
bG9wbWVudDFDMEEGA1UEAww6SGVsaW9uIEV1Y2FseXB0dXMgRGV2ZWxvcG1lbnQg
Um9vdCBDZXJ0aWZpY2F0aW9uIEF1dGhvcml0eTAeFw0xNjEwMjQyMjE4MzRaFw0x
OTEwMjQyMjE4MzRaMIGcMQswCQYDVQQGEwJVUzETMBEGA1UECAwKQ2FsaWZvcm5p
YTEYMBYGA1UECgwPSGV3bGV0dC1QYWNrYXJkMSYwJAYDVQQLDB1IZWxpb24gRXVj
YWx5cHR1cyBEZXZlbG9wbWVudDE2MDQGA1UEAwwtKi5ocGUtZ29sMDEtZjMubWpj
LnByYy5ldWNhbHlwdHVzLXN5c3RlbXMuY29tMIIBIjANBgkqhkiG9w0BAQEFAAOC
AQ8AMIIBCgKCAQEAuyrb0W1Svvmq7OIPJh62G4J5kuaLsSK+3nVL7Sghc+z4AKJb
ZKfA32pehWg1/G8RCPQFCWfZUBmtMgHUDj5dqen9QrrHCQermnegyJ5W6ij/IgfU
Ggs+hHyd+090P2hlJxhopoNKSXi4YiRxWNf98lBpUteX5VXIv1VHnZw3+SKnZ63N
xw8HoGxnprlXihifSX2qaOzeEzrxRZ8IAHH4dFHnHeai48PulPcfk/10X6RDh7EH
JMZ6eCJAVN0UpFEWqi/fva0wceV+OUCaE9w2lFBw0HtuRpGX1o/89z//1R87Owo4
SyN9lHghWsVOdtZrVQx95RGx41pXjpcygZ3/HQIDAQABo4IBIDCCARwwDAYDVR0T
AQH/BAIwADAdBgNVHSUEFjAUBggrBgEFBQcDAQYIKwYBBQUHAwIwDgYDVR0PAQH/
BAQDAgWgMB8GA1UdIwQYMBaAFDZChTaQujqm5C4FWaBQExPk0ttYMIGcBgNVHREE
gZQwgZGCLSouaHBlLWdvbDAxLWYzLm1qYy5wcmMuZXVjYWx5cHR1cy1zeXN0ZW1z
LmNvbYIraHBlLWdvbDAxLWYzLm1qYy5wcmMuZXVjYWx5cHR1cy1zeXN0ZW1zLmNv
bYIzY29uc29sZS1ocGUtZ29sMDEtZjMubWpjLnByYy5ldWNhbHlwdHVzLXN5c3Rl
bXMuY29tMB0GA1UdDgQWBBQ3GXiR2hserlIvW0u4vKDZivKn4TANBgkqhkiG9w0B
AQsFAAOCAgEAekxiv30wtBm2C4HgbnsVowlcLqZMB6iwWRN2SBJuffdMuLd18sI3
vsuqv7zO3+cmvFqYaZ4vomulBz+1AQdtCOhFHNIKC//+jtLZD1zCCPJIipWKUmt7
YDNemWlpNvpC1mLVgYrg2qHUf6i3UsMcW2/blSuT4OuSMewqM+eWBlcoCXqbYKD/
ElzB8V2BRGmKwzw28c6LMm7Z8jN16J6TgIslfarYa3vja+fOyvzRdqRc5n+t/WFP
yPcX/4eiObeIMMS41rG14Rcw4GywbzxAdFtRwemRdZp/HWZa/4fA6XSjCGocW9J1
zykyZQLRJ9YrobkyQeWD19KGjvMcsJdeR/eUuYBxzUAMRjkoXDsTd2a96scDZWTW
tyw3FcfFcC2gTM0boeMVUGjAUHXiPQlIYwuqEfqdFMywqspjodMuP05HFHc9vszU
S7X5wsbZ/IcYWj8VQmg4bltzXLUv8JF8oLpcYL9DAOjulpM9EemwHox98MY3KY1e
vaMDUPuKxW5xiaQgWOV28l7fwrlOJ7kcI7IeIcWKHNjGGDOCbHy5U2QI8YUh9iHk
v/CV8ydBay1meYddLU1I165IKtFC3zkb3FhbZ/S9IVvz6vVJ0YAZWwSzg4+izVFi
FJcKT7CUDhlqA2Rt9zU02fSXUXNMtYqhk4xBa5YONTAN6u57QQFCa+I=
-----END CERTIFICATE-----
