Certificate:
    Data:
        Version: 3 (0x2)
        Serial Number: 33 (0x21)
    Signature Algorithm: sha256WithRSAEncryption
        Issuer: C=US, ST=California, L=Goleta, O=Hewlett-Packard, OU=Helion Eucalyptus Development, CN=Helion Eucalyptus Development Root Certification Authority
        Validity
            Not Before: Oct 24 23:02:47 2016 GMT
            Not After : Oct 24 23:02:47 2019 GMT
        Subject: C=US, ST=California, O=Hewlett-Packard, OU=Helion Eucalyptus Development, CN=*.hpe-gol01-d8.mjc.prc.eucalyptus-systems.com
        Subject Public Key Info:
            Public Key Algorithm: rsaEncryption
                Public-Key: (2048 bit)
                Modulus:
                    00:b0:3e:5d:a1:12:ca:f3:ee:b5:4e:0c:da:a9:3a:
                    05:fe:08:c5:ff:3e:c6:01:ec:3a:3f:d8:d9:ae:b3:
                    4d:aa:42:49:3f:c1:ff:13:ff:d4:e7:ad:e5:a7:ed:
                    e0:c0:7d:2d:15:5c:19:1c:ce:c0:15:b4:ce:e9:9e:
                    4f:fe:18:dc:d0:a0:6b:42:9f:18:3c:e6:64:da:60:
                    51:5d:0d:29:22:22:39:fa:b0:e4:27:29:e1:15:13:
                    a2:62:37:59:d7:02:91:03:d1:c2:37:c5:65:53:f1:
                    c0:08:05:1b:a8:35:59:f2:36:17:b0:16:8b:a3:ba:
                    a3:e0:cd:f1:9e:88:b3:be:67:bd:8d:8d:e8:d2:28:
                    de:cd:6b:97:24:79:ca:1b:cd:7f:08:39:ad:d0:dc:
                    49:38:83:52:94:e3:8d:8d:0e:cd:41:2a:b9:78:0a:
                    af:db:b1:f5:b3:cf:f7:d1:16:b3:98:98:3d:bb:e0:
                    ad:45:24:59:bf:8d:87:2f:25:46:73:56:19:f3:98:
                    d9:47:30:7a:dd:f3:b2:30:db:36:63:3d:73:cc:49:
                    4c:06:be:c5:fd:9b:f1:07:25:9a:e8:4f:55:83:ec:
                    3c:a4:d1:4d:88:8c:0e:cb:be:89:8f:6c:fe:00:35:
                    c4:40:4c:5c:b5:c0:d7:f3:01:43:34:bf:ac:25:81:
                    85:85
                Exponent: 65537 (0x10001)
        X509v3 extensions:
            X509v3 Basic Constraints: critical
                CA:FALSE
            X509v3 Extended Key Usage: 
                TLS Web Server Authentication, TLS Web Client Authentication
            X509v3 Key Usage: critical
                Digital Signature, Key Encipherment
            X509v3 Authority Key Identifier: 
                keyid:36:42:85:36:90:BA:3A:A6:E4:2E:05:59:A0:50:13:13:E4:D2:DB:58

            X509v3 Subject Alternative Name: 
                DNS:*.hpe-gol01-d8.mjc.prc.eucalyptus-systems.com, DNS:hpe-gol01-d8.mjc.prc.eucalyptus-systems.com, DNS:console-hpe-gol01-d8.mjc.prc.eucalyptus-systems.com
            X509v3 Subject Key Identifier: 
                68:6F:8F:1D:D0:D3:95:DB:C9:DA:B0:D6:2B:DE:32:49:9C:0C:CA:85
    Signature Algorithm: sha256WithRSAEncryption
         bb:8e:7c:68:27:39:af:5c:f8:a0:93:e6:0f:78:bf:dd:fd:ac:
         a0:c7:7f:c6:23:95:6a:d0:7d:65:de:97:13:b4:6e:bf:71:9b:
         b3:e1:9e:39:ed:d9:f5:ad:81:9c:9e:7e:eb:7c:36:c3:a9:3b:
         08:a4:a9:42:1d:bb:17:0a:64:76:47:c1:c4:31:46:3f:25:f2:
         cc:d8:7d:a2:cf:18:17:4a:c7:08:87:7c:10:07:6b:0d:87:b7:
         4c:05:7c:28:20:4b:77:57:41:08:6e:7f:95:61:a6:31:38:cd:
         62:27:41:77:3b:af:01:22:01:91:2c:9e:5e:fa:d5:c5:19:87:
         8f:80:34:c3:8b:c2:6f:6d:dc:a4:29:8d:d5:4f:0f:e5:ad:8f:
         aa:d0:f1:4e:a0:8e:f3:98:1e:36:fa:37:4d:15:b6:90:a5:8e:
         cd:92:28:30:cd:ae:26:98:4d:0b:46:8b:8f:5e:9e:17:a5:e1:
         8b:e5:44:ca:d0:27:e7:e7:93:b3:f7:53:05:78:93:6c:c3:dd:
         17:22:c6:5c:52:34:9b:ce:78:18:ad:5e:53:16:61:1b:cf:aa:
         45:f8:ec:50:dd:6a:8f:03:29:76:7e:fd:e6:89:6a:5f:52:41:
         4c:6b:e8:49:c8:d7:0e:63:1c:76:3d:60:2e:05:36:77:ae:a1:
         7b:f0:29:39:97:86:46:12:80:e9:47:19:a1:f7:2f:f0:3c:aa:
         de:c1:42:68:6a:44:2f:a1:20:a7:97:e1:bb:56:9c:1f:70:8f:
         4a:2f:26:a3:2e:37:5b:20:9d:f1:23:77:f5:5d:70:85:86:63:
         37:ef:19:48:02:44:da:30:42:99:4e:79:a5:7b:3a:5c:09:94:
         04:57:96:6f:3c:bd:4b:dd:4e:78:25:a7:58:89:db:5e:5b:46:
         33:41:bc:57:6b:8a:ff:8f:1f:8b:d0:74:1d:4b:70:09:da:d9:
         84:a7:8b:08:63:48:ee:be:91:e9:70:e4:6d:9e:12:63:24:92:
         f6:6d:47:3f:73:53:28:42:2b:5d:dd:c4:45:2a:b0:d7:43:c0:
         b5:f1:5e:25:cf:9b:85:76:e1:ae:5f:46:df:af:cd:4b:8e:e6:
         44:aa:f8:32:a7:50:ec:0d:5e:82:f8:14:98:71:0c:7c:a1:1c:
         4d:1e:d7:f1:d9:fd:ef:3a:26:61:69:e6:04:5e:0e:72:56:dd:
         54:75:e2:49:93:40:f1:0f:f4:23:a6:c5:02:76:9f:5c:fb:f9:
         7c:da:b3:82:2a:a1:8b:67:74:f3:e0:cf:08:e3:dd:c1:51:e8:
         e7:0b:da:b8:2e:b7:54:f8:47:0b:64:65:b9:9e:b5:f5:85:93:
         bd:a0:95:89:c7:3e:d4:7d
-----BEGIN CERTIFICATE-----
MIIF9TCCA92gAwIBAgIBITANBgkqhkiG9w0BAQsFADCBujELMAkGA1UEBhMCVVMx
EzARBgNVBAgMCkNhbGlmb3JuaWExDzANBgNVBAcMBkdvbGV0YTEYMBYGA1UECgwP
SGV3bGV0dC1QYWNrYXJkMSYwJAYDVQQLDB1IZWxpb24gRXVjYWx5cHR1cyBEZXZl
bG9wbWVudDFDMEEGA1UEAww6SGVsaW9uIEV1Y2FseXB0dXMgRGV2ZWxvcG1lbnQg
Um9vdCBDZXJ0aWZpY2F0aW9uIEF1dGhvcml0eTAeFw0xNjEwMjQyMzAyNDdaFw0x
OTEwMjQyMzAyNDdaMIGcMQswCQYDVQQGEwJVUzETMBEGA1UECAwKQ2FsaWZvcm5p
YTEYMBYGA1UECgwPSGV3bGV0dC1QYWNrYXJkMSYwJAYDVQQLDB1IZWxpb24gRXVj
YWx5cHR1cyBEZXZlbG9wbWVudDE2MDQGA1UEAwwtKi5ocGUtZ29sMDEtZDgubWpj
LnByYy5ldWNhbHlwdHVzLXN5c3RlbXMuY29tMIIBIjANBgkqhkiG9w0BAQEFAAOC
AQ8AMIIBCgKCAQEAsD5doRLK8+61TgzaqToF/gjF/z7GAew6P9jZrrNNqkJJP8H/
E//U563lp+3gwH0tFVwZHM7AFbTO6Z5P/hjc0KBrQp8YPOZk2mBRXQ0pIiI5+rDk
JynhFROiYjdZ1wKRA9HCN8VlU/HACAUbqDVZ8jYXsBaLo7qj4M3xnoizvme9jY3o
0ijezWuXJHnKG81/CDmt0NxJOINSlOONjQ7NQSq5eAqv27H1s8/30RazmJg9u+Ct
RSRZv42HLyVGc1YZ85jZRzB63fOyMNs2Yz1zzElMBr7F/ZvxByWa6E9Vg+w8pNFN
iIwOy76Jj2z+ADXEQExctcDX8wFDNL+sJYGFhQIDAQABo4IBIDCCARwwDAYDVR0T
AQH/BAIwADAdBgNVHSUEFjAUBggrBgEFBQcDAQYIKwYBBQUHAwIwDgYDVR0PAQH/
BAQDAgWgMB8GA1UdIwQYMBaAFDZChTaQujqm5C4FWaBQExPk0ttYMIGcBgNVHREE
gZQwgZGCLSouaHBlLWdvbDAxLWQ4Lm1qYy5wcmMuZXVjYWx5cHR1cy1zeXN0ZW1z
LmNvbYIraHBlLWdvbDAxLWQ4Lm1qYy5wcmMuZXVjYWx5cHR1cy1zeXN0ZW1zLmNv
bYIzY29uc29sZS1ocGUtZ29sMDEtZDgubWpjLnByYy5ldWNhbHlwdHVzLXN5c3Rl
bXMuY29tMB0GA1UdDgQWBBRob48d0NOV28nasNYr3jJJnAzKhTANBgkqhkiG9w0B
AQsFAAOCAgEAu458aCc5r1z4oJPmD3i/3f2soMd/xiOVatB9Zd6XE7Ruv3Gbs+Ge
Oe3Z9a2BnJ5+63w2w6k7CKSpQh27FwpkdkfBxDFGPyXyzNh9os8YF0rHCId8EAdr
DYe3TAV8KCBLd1dBCG5/lWGmMTjNYidBdzuvASIBkSyeXvrVxRmHj4A0w4vCb23c
pCmN1U8P5a2PqtDxTqCO85geNvo3TRW2kKWOzZIoMM2uJphNC0aLj16eF6Xhi+VE
ytAn5+eTs/dTBXiTbMPdFyLGXFI0m854GK1eUxZhG8+qRfjsUN1qjwMpdn795olq
X1JBTGvoScjXDmMcdj1gLgU2d66he/ApOZeGRhKA6UcZofcv8Dyq3sFCaGpEL6Eg
p5fhu1acH3CPSi8moy43WyCd8SN39V1whYZjN+8ZSAJE2jBCmU55pXs6XAmUBFeW
bzy9S91OeCWnWInbXltGM0G8V2uK/48fi9B0HUtwCdrZhKeLCGNI7r6R6XDkbZ4S
YySS9m1HP3NTKEIrXd3ERSqw10PAtfFeJc+bhXbhrl9G36/NS47mRKr4MqdQ7A1e
gvgUmHEMfKEcTR7X8dn97zomYWnmBF4OclbdVHXiSZNA8Q/0I6bFAnafXPv5fNqz
giqhi2d08+DPCOPdwVHo5wvauC63VPhHC2RluZ619YWTvaCVicc+1H0=
-----END CERTIFICATE-----
